
MyCar_ECU.elf:     file format elf32-littlearm

Sections:
Idx Name          Size      VMA       LMA       File off  Algn
  0 .isr_vector   000000bc  08000000  08000000  00001000  2**0
                  CONTENTS, ALLOC, LOAD, READONLY, DATA
  1 .text         00002af8  080000bc  080000bc  000010bc  2**2
                  CONTENTS, ALLOC, LOAD, READONLY, CODE
  2 .rodata       000000e4  08002bb4  08002bb4  00003bb4  2**2
                  CONTENTS, ALLOC, LOAD, READONLY, DATA
  3 .ARM.extab    00000000  08002c98  08002c98  00004078  2**0
                  CONTENTS
  4 .ARM          00000000  08002c98  08002c98  00004078  2**0
                  CONTENTS
  5 .preinit_array 00000000  08002c98  08002c98  00004078  2**0
                  CONTENTS, ALLOC, LOAD, DATA
  6 .init_array   00000008  08002c98  08002c98  00003c98  2**2
                  CONTENTS, ALLOC, LOAD, READONLY, DATA
  7 .fini_array   00000004  08002ca0  08002ca0  00003ca0  2**2
                  CONTENTS, ALLOC, LOAD, READONLY, DATA
  8 .data         00000078  20000000  08002ca4  00004000  2**2
                  CONTENTS, ALLOC, LOAD, DATA
  9 .bss          000001c8  20000078  08002d1c  00004078  2**2
                  ALLOC
 10 ._user_heap_stack 00000600  20000240  08002d1c  00004240  2**0
                  ALLOC
 11 .ARM.attributes 00000028  00000000  00000000  00004078  2**0
                  CONTENTS, READONLY
 12 .debug_info   00006659  00000000  00000000  000040a0  2**0
                  CONTENTS, READONLY, DEBUGGING, OCTETS
 13 .debug_abbrev 00001876  00000000  00000000  0000a6f9  2**0
                  CONTENTS, READONLY, DEBUGGING, OCTETS
 14 .debug_aranges 000003b0  00000000  00000000  0000bf70  2**3
                  CONTENTS, READONLY, DEBUGGING, OCTETS
 15 .debug_rnglists 000002a8  00000000  00000000  0000c320  2**0
                  CONTENTS, READONLY, DEBUGGING, OCTETS
 16 .debug_macro  0001468c  00000000  00000000  0000c5c8  2**0
                  CONTENTS, READONLY, DEBUGGING, OCTETS
 17 .debug_line   00006086  00000000  00000000  00020c54  2**0
                  CONTENTS, READONLY, DEBUGGING, OCTETS
 18 .debug_str    00069e73  00000000  00000000  00026cda  2**0
                  CONTENTS, READONLY, DEBUGGING, OCTETS
 19 .comment      00000043  00000000  00000000  00090b4d  2**0
                  CONTENTS, READONLY
 20 .debug_frame  00000fe0  00000000  00000000  00090b90  2**2
                  CONTENTS, READONLY, DEBUGGING, OCTETS
 21 .debug_line_str 00000058  00000000  00000000  00091b70  2**0
                  CONTENTS, READONLY, DEBUGGING, OCTETS

Disassembly of section .text:

080000bc <__do_global_dtors_aux>:
 80000bc:	b510      	push	{r4, lr}
 80000be:	4c06      	ldr	r4, [pc, #24]	@ (80000d8 <__do_global_dtors_aux+0x1c>)
 80000c0:	7823      	ldrb	r3, [r4, #0]
 80000c2:	2b00      	cmp	r3, #0
 80000c4:	d107      	bne.n	80000d6 <__do_global_dtors_aux+0x1a>
 80000c6:	4b05      	ldr	r3, [pc, #20]	@ (80000dc <__do_global_dtors_aux+0x20>)
 80000c8:	2b00      	cmp	r3, #0
 80000ca:	d002      	beq.n	80000d2 <__do_global_dtors_aux+0x16>
 80000cc:	4804      	ldr	r0, [pc, #16]	@ (80000e0 <__do_global_dtors_aux+0x24>)
 80000ce:	e000      	b.n	80000d2 <__do_global_dtors_aux+0x16>
 80000d0:	bf00      	nop
 80000d2:	2301      	movs	r3, #1
 80000d4:	7023      	strb	r3, [r4, #0]
 80000d6:	bd10      	pop	{r4, pc}
 80000d8:	20000078 	.word	0x20000078
 80000dc:	00000000 	.word	0x00000000
 80000e0:	08002b9c 	.word	0x08002b9c

080000e4 <frame_dummy>:
 80000e4:	4b04      	ldr	r3, [pc, #16]	@ (80000f8 <frame_dummy+0x14>)
 80000e6:	b510      	push	{r4, lr}
 80000e8:	2b00      	cmp	r3, #0
 80000ea:	d003      	beq.n	80000f4 <frame_dummy+0x10>
 80000ec:	4903      	ldr	r1, [pc, #12]	@ (80000fc <frame_dummy+0x18>)
 80000ee:	4804      	ldr	r0, [pc, #16]	@ (8000100 <frame_dummy+0x1c>)
 80000f0:	e000      	b.n	80000f4 <frame_dummy+0x10>
 80000f2:	bf00      	nop
 80000f4:	bd10      	pop	{r4, pc}
 80000f6:	46c0      	nop			@ (mov r8, r8)
 80000f8:	00000000 	.word	0x00000000
 80000fc:	2000007c 	.word	0x2000007c
 8000100:	08002b9c 	.word	0x08002b9c

08000104 <__gnu_thumb1_case_shi>:
 8000104:	b403      	push	{r0, r1}
 8000106:	4671      	mov	r1, lr
 8000108:	0849      	lsrs	r1, r1, #1
 800010a:	0040      	lsls	r0, r0, #1
 800010c:	0049      	lsls	r1, r1, #1
 800010e:	5e09      	ldrsh	r1, [r1, r0]
 8000110:	0049      	lsls	r1, r1, #1
 8000112:	448e      	add	lr, r1
 8000114:	bc03      	pop	{r0, r1}
 8000116:	4770      	bx	lr

08000118 <__udivsi3>:
 8000118:	2200      	movs	r2, #0
 800011a:	0843      	lsrs	r3, r0, #1
 800011c:	428b      	cmp	r3, r1
 800011e:	d374      	bcc.n	800020a <__udivsi3+0xf2>
 8000120:	0903      	lsrs	r3, r0, #4
 8000122:	428b      	cmp	r3, r1
 8000124:	d35f      	bcc.n	80001e6 <__udivsi3+0xce>
 8000126:	0a03      	lsrs	r3, r0, #8
 8000128:	428b      	cmp	r3, r1
 800012a:	d344      	bcc.n	80001b6 <__udivsi3+0x9e>
 800012c:	0b03      	lsrs	r3, r0, #12
 800012e:	428b      	cmp	r3, r1
 8000130:	d328      	bcc.n	8000184 <__udivsi3+0x6c>
 8000132:	0c03      	lsrs	r3, r0, #16
 8000134:	428b      	cmp	r3, r1
 8000136:	d30d      	bcc.n	8000154 <__udivsi3+0x3c>
 8000138:	22ff      	movs	r2, #255	@ 0xff
 800013a:	0209      	lsls	r1, r1, #8
 800013c:	ba12      	rev	r2, r2
 800013e:	0c03      	lsrs	r3, r0, #16
 8000140:	428b      	cmp	r3, r1
 8000142:	d302      	bcc.n	800014a <__udivsi3+0x32>
 8000144:	1212      	asrs	r2, r2, #8
 8000146:	0209      	lsls	r1, r1, #8
 8000148:	d065      	beq.n	8000216 <__udivsi3+0xfe>
 800014a:	0b03      	lsrs	r3, r0, #12
 800014c:	428b      	cmp	r3, r1
 800014e:	d319      	bcc.n	8000184 <__udivsi3+0x6c>
 8000150:	e000      	b.n	8000154 <__udivsi3+0x3c>
 8000152:	0a09      	lsrs	r1, r1, #8
 8000154:	0bc3      	lsrs	r3, r0, #15
 8000156:	428b      	cmp	r3, r1
 8000158:	d301      	bcc.n	800015e <__udivsi3+0x46>
 800015a:	03cb      	lsls	r3, r1, #15
 800015c:	1ac0      	subs	r0, r0, r3
 800015e:	4152      	adcs	r2, r2
 8000160:	0b83      	lsrs	r3, r0, #14
 8000162:	428b      	cmp	r3, r1
 8000164:	d301      	bcc.n	800016a <__udivsi3+0x52>
 8000166:	038b      	lsls	r3, r1, #14
 8000168:	1ac0      	subs	r0, r0, r3
 800016a:	4152      	adcs	r2, r2
 800016c:	0b43      	lsrs	r3, r0, #13
 800016e:	428b      	cmp	r3, r1
 8000170:	d301      	bcc.n	8000176 <__udivsi3+0x5e>
 8000172:	034b      	lsls	r3, r1, #13
 8000174:	1ac0      	subs	r0, r0, r3
 8000176:	4152      	adcs	r2, r2
 8000178:	0b03      	lsrs	r3, r0, #12
 800017a:	428b      	cmp	r3, r1
 800017c:	d301      	bcc.n	8000182 <__udivsi3+0x6a>
 800017e:	030b      	lsls	r3, r1, #12
 8000180:	1ac0      	subs	r0, r0, r3
 8000182:	4152      	adcs	r2, r2
 8000184:	0ac3      	lsrs	r3, r0, #11
 8000186:	428b      	cmp	r3, r1
 8000188:	d301      	bcc.n	800018e <__udivsi3+0x76>
 800018a:	02cb      	lsls	r3, r1, #11
 800018c:	1ac0      	subs	r0, r0, r3
 800018e:	4152      	adcs	r2, r2
 8000190:	0a83      	lsrs	r3, r0, #10
 8000192:	428b      	cmp	r3, r1
 8000194:	d301      	bcc.n	800019a <__udivsi3+0x82>
 8000196:	028b      	lsls	r3, r1, #10
 8000198:	1ac0      	subs	r0, r0, r3
 800019a:	4152      	adcs	r2, r2
 800019c:	0a43      	lsrs	r3, r0, #9
 800019e:	428b      	cmp	r3, r1
 80001a0:	d301      	bcc.n	80001a6 <__udivsi3+0x8e>
 80001a2:	024b      	lsls	r3, r1, #9
 80001a4:	1ac0      	subs	r0, r0, r3
 80001a6:	4152      	adcs	r2, r2
 80001a8:	0a03      	lsrs	r3, r0, #8
 80001aa:	428b      	cmp	r3, r1
 80001ac:	d301      	bcc.n	80001b2 <__udivsi3+0x9a>
 80001ae:	020b      	lsls	r3, r1, #8
 80001b0:	1ac0      	subs	r0, r0, r3
 80001b2:	4152      	adcs	r2, r2
 80001b4:	d2cd      	bcs.n	8000152 <__udivsi3+0x3a>
 80001b6:	09c3      	lsrs	r3, r0, #7
 80001b8:	428b      	cmp	r3, r1
 80001ba:	d301      	bcc.n	80001c0 <__udivsi3+0xa8>
 80001bc:	01cb      	lsls	r3, r1, #7
 80001be:	1ac0      	subs	r0, r0, r3
 80001c0:	4152      	adcs	r2, r2
 80001c2:	0983      	lsrs	r3, r0, #6
 80001c4:	428b      	cmp	r3, r1
 80001c6:	d301      	bcc.n	80001cc <__udivsi3+0xb4>
 80001c8:	018b      	lsls	r3, r1, #6
 80001ca:	1ac0      	subs	r0, r0, r3
 80001cc:	4152      	adcs	r2, r2
 80001ce:	0943      	lsrs	r3, r0, #5
 80001d0:	428b      	cmp	r3, r1
 80001d2:	d301      	bcc.n	80001d8 <__udivsi3+0xc0>
 80001d4:	014b      	lsls	r3, r1, #5
 80001d6:	1ac0      	subs	r0, r0, r3
 80001d8:	4152      	adcs	r2, r2
 80001da:	0903      	lsrs	r3, r0, #4
 80001dc:	428b      	cmp	r3, r1
 80001de:	d301      	bcc.n	80001e4 <__udivsi3+0xcc>
 80001e0:	010b      	lsls	r3, r1, #4
 80001e2:	1ac0      	subs	r0, r0, r3
 80001e4:	4152      	adcs	r2, r2
 80001e6:	08c3      	lsrs	r3, r0, #3
 80001e8:	428b      	cmp	r3, r1
 80001ea:	d301      	bcc.n	80001f0 <__udivsi3+0xd8>
 80001ec:	00cb      	lsls	r3, r1, #3
 80001ee:	1ac0      	subs	r0, r0, r3
 80001f0:	4152      	adcs	r2, r2
 80001f2:	0883      	lsrs	r3, r0, #2
 80001f4:	428b      	cmp	r3, r1
 80001f6:	d301      	bcc.n	80001fc <__udivsi3+0xe4>
 80001f8:	008b      	lsls	r3, r1, #2
 80001fa:	1ac0      	subs	r0, r0, r3
 80001fc:	4152      	adcs	r2, r2
 80001fe:	0843      	lsrs	r3, r0, #1
 8000200:	428b      	cmp	r3, r1
 8000202:	d301      	bcc.n	8000208 <__udivsi3+0xf0>
 8000204:	004b      	lsls	r3, r1, #1
 8000206:	1ac0      	subs	r0, r0, r3
 8000208:	4152      	adcs	r2, r2
 800020a:	1a41      	subs	r1, r0, r1
 800020c:	d200      	bcs.n	8000210 <__udivsi3+0xf8>
 800020e:	4601      	mov	r1, r0
 8000210:	4152      	adcs	r2, r2
 8000212:	4610      	mov	r0, r2
 8000214:	4770      	bx	lr
 8000216:	e7ff      	b.n	8000218 <__udivsi3+0x100>
 8000218:	b501      	push	{r0, lr}
 800021a:	2000      	movs	r0, #0
 800021c:	f000 f806 	bl	800022c <__aeabi_idiv0>
 8000220:	bd02      	pop	{r1, pc}
 8000222:	46c0      	nop			@ (mov r8, r8)

08000224 <__aeabi_uidivmod>:
 8000224:	2900      	cmp	r1, #0
 8000226:	d0f7      	beq.n	8000218 <__udivsi3+0x100>
 8000228:	e776      	b.n	8000118 <__udivsi3>
 800022a:	4770      	bx	lr

0800022c <__aeabi_idiv0>:
 800022c:	4770      	bx	lr
 800022e:	46c0      	nop			@ (mov r8, r8)

08000230 <_ZN18AutonomyController4initER10ParametersR16UltrasonicSensorS3_>:
#include "sensors/UltrasonicSensor.hpp"

void AutonomyController::init(Parameters& params,
                              UltrasonicSensor& frontSensor,
                              UltrasonicSensor& rearSensor)
{
 8000230:	b580      	push	{r7, lr}
 8000232:	b084      	sub	sp, #16
 8000234:	af00      	add	r7, sp, #0
 8000236:	60f8      	str	r0, [r7, #12]
 8000238:	60b9      	str	r1, [r7, #8]
 800023a:	607a      	str	r2, [r7, #4]
 800023c:	603b      	str	r3, [r7, #0]
    params_ = &params;
 800023e:	68fb      	ldr	r3, [r7, #12]
 8000240:	68ba      	ldr	r2, [r7, #8]
 8000242:	601a      	str	r2, [r3, #0]
    front_  = &frontSensor;
 8000244:	68fb      	ldr	r3, [r7, #12]
 8000246:	687a      	ldr	r2, [r7, #4]
 8000248:	605a      	str	r2, [r3, #4]
    rear_   = &rearSensor;
 800024a:	68fb      	ldr	r3, [r7, #12]
 800024c:	683a      	ldr	r2, [r7, #0]
 800024e:	609a      	str	r2, [r3, #8]

    reset();
 8000250:	68fb      	ldr	r3, [r7, #12]
 8000252:	0018      	movs	r0, r3
 8000254:	f000 f804 	bl	8000260 <_ZN18AutonomyController5resetEv>
}
 8000258:	46c0      	nop			@ (mov r8, r8)
 800025a:	46bd      	mov	sp, r7
 800025c:	b004      	add	sp, #16
 800025e:	bd80      	pop	{r7, pc}

08000260 <_ZN18AutonomyController5resetEv>:

void AutonomyController::reset()
{
 8000260:	b580      	push	{r7, lr}
 8000262:	b082      	sub	sp, #8
 8000264:	af00      	add	r7, sp, #0
 8000266:	6078      	str	r0, [r7, #4]
    state_ = State::Forward;
 8000268:	687b      	ldr	r3, [r7, #4]
 800026a:	2200      	movs	r2, #0
 800026c:	731a      	strb	r2, [r3, #12]
    stateSinceMs_ = 0;
 800026e:	687b      	ldr	r3, [r7, #4]
 8000270:	2200      	movs	r2, #0
 8000272:	611a      	str	r2, [r3, #16]
}
 8000274:	46c0      	nop			@ (mov r8, r8)
 8000276:	46bd      	mov	sp, r7
 8000278:	b002      	add	sp, #8
 800027a:	bd80      	pop	{r7, pc}

0800027c <_ZN18AutonomyController13frontBlocked_Ev>:

bool AutonomyController::frontBlocked_()
{
 800027c:	b580      	push	{r7, lr}
 800027e:	b084      	sub	sp, #16
 8000280:	af00      	add	r7, sp, #0
 8000282:	6078      	str	r0, [r7, #4]
    if (!params_ || !front_) return false;
 8000284:	687b      	ldr	r3, [r7, #4]
 8000286:	681b      	ldr	r3, [r3, #0]
 8000288:	2b00      	cmp	r3, #0
 800028a:	d003      	beq.n	8000294 <_ZN18AutonomyController13frontBlocked_Ev+0x18>
 800028c:	687b      	ldr	r3, [r7, #4]
 800028e:	685b      	ldr	r3, [r3, #4]
 8000290:	2b00      	cmp	r3, #0
 8000292:	d101      	bne.n	8000298 <_ZN18AutonomyController13frontBlocked_Ev+0x1c>
 8000294:	2300      	movs	r3, #0
 8000296:	e01f      	b.n	80002d8 <_ZN18AutonomyController13frontBlocked_Ev+0x5c>
    if (!params_->sensorsEnabled) return false;
 8000298:	687b      	ldr	r3, [r7, #4]
 800029a:	681b      	ldr	r3, [r3, #0]
 800029c:	791b      	ldrb	r3, [r3, #4]
 800029e:	2201      	movs	r2, #1
 80002a0:	4053      	eors	r3, r2
 80002a2:	b2db      	uxtb	r3, r3
 80002a4:	2b00      	cmp	r3, #0
 80002a6:	d001      	beq.n	80002ac <_ZN18AutonomyController13frontBlocked_Ev+0x30>
 80002a8:	2300      	movs	r3, #0
 80002aa:	e015      	b.n	80002d8 <_ZN18AutonomyController13frontBlocked_Ev+0x5c>

    uint32_t dist = 0;
 80002ac:	2300      	movs	r3, #0
 80002ae:	60fb      	str	r3, [r7, #12]
    if (front_->measureOnce(dist))
 80002b0:	687b      	ldr	r3, [r7, #4]
 80002b2:	685b      	ldr	r3, [r3, #4]
 80002b4:	220c      	movs	r2, #12
 80002b6:	18ba      	adds	r2, r7, r2
 80002b8:	0011      	movs	r1, r2
 80002ba:	0018      	movs	r0, r3
 80002bc:	f001 ff70 	bl	80021a0 <_ZN16UltrasonicSensor11measureOnceERm>
 80002c0:	1e03      	subs	r3, r0, #0
 80002c2:	d008      	beq.n	80002d6 <_ZN18AutonomyController13frontBlocked_Ev+0x5a>
        return dist <= params_->obstacleThresholdMm;
 80002c4:	687b      	ldr	r3, [r7, #4]
 80002c6:	681b      	ldr	r3, [r3, #0]
 80002c8:	68d9      	ldr	r1, [r3, #12]
 80002ca:	68fa      	ldr	r2, [r7, #12]
 80002cc:	2300      	movs	r3, #0
 80002ce:	4291      	cmp	r1, r2
 80002d0:	415b      	adcs	r3, r3
 80002d2:	b2db      	uxtb	r3, r3
 80002d4:	e000      	b.n	80002d8 <_ZN18AutonomyController13frontBlocked_Ev+0x5c>

    return false;
 80002d6:	2300      	movs	r3, #0
}
 80002d8:	0018      	movs	r0, r3
 80002da:	46bd      	mov	sp, r7
 80002dc:	b004      	add	sp, #16
 80002de:	bd80      	pop	{r7, pc}

080002e0 <_ZN18AutonomyController6updateEm>:

    return false;
}

Command AutonomyController::update(uint32_t nowMs)
{
 80002e0:	b580      	push	{r7, lr}
 80002e2:	b084      	sub	sp, #16
 80002e4:	af00      	add	r7, sp, #0
 80002e6:	6078      	str	r0, [r7, #4]
 80002e8:	6039      	str	r1, [r7, #0]
    if (!params_ || !front_ || !rear_)
 80002ea:	687b      	ldr	r3, [r7, #4]
 80002ec:	681b      	ldr	r3, [r3, #0]
 80002ee:	2b00      	cmp	r3, #0
 80002f0:	d007      	beq.n	8000302 <_ZN18AutonomyController6updateEm+0x22>
 80002f2:	687b      	ldr	r3, [r7, #4]
 80002f4:	685b      	ldr	r3, [r3, #4]
 80002f6:	2b00      	cmp	r3, #0
 80002f8:	d003      	beq.n	8000302 <_ZN18AutonomyController6updateEm+0x22>
 80002fa:	687b      	ldr	r3, [r7, #4]
 80002fc:	689b      	ldr	r3, [r3, #8]
 80002fe:	2b00      	cmp	r3, #0
 8000300:	d107      	bne.n	8000312 <_ZN18AutonomyController6updateEm+0x32>
        return {CommandType::Stop, 0};
 8000302:	210c      	movs	r1, #12
 8000304:	187b      	adds	r3, r7, r1
 8000306:	2205      	movs	r2, #5
 8000308:	701a      	strb	r2, [r3, #0]
 800030a:	187b      	adds	r3, r7, r1
 800030c:	2200      	movs	r2, #0
 800030e:	705a      	strb	r2, [r3, #1]
 8000310:	e08f      	b.n	8000432 <_ZN18AutonomyController6updateEm+0x152>

    if (!params_->autoModeEnabled || !params_->sensorsEnabled)
 8000312:	687b      	ldr	r3, [r7, #4]
 8000314:	681b      	ldr	r3, [r3, #0]
 8000316:	795b      	ldrb	r3, [r3, #5]
 8000318:	2201      	movs	r2, #1
 800031a:	4053      	eors	r3, r2
 800031c:	b2db      	uxtb	r3, r3
 800031e:	2b00      	cmp	r3, #0
 8000320:	d107      	bne.n	8000332 <_ZN18AutonomyController6updateEm+0x52>
 8000322:	687b      	ldr	r3, [r7, #4]
 8000324:	681b      	ldr	r3, [r3, #0]
 8000326:	791b      	ldrb	r3, [r3, #4]
 8000328:	2201      	movs	r2, #1
 800032a:	4053      	eors	r3, r2
 800032c:	b2db      	uxtb	r3, r3
 800032e:	2b00      	cmp	r3, #0
 8000330:	d007      	beq.n	8000342 <_ZN18AutonomyController6updateEm+0x62>
        return {CommandType::Stop, 0};
 8000332:	210c      	movs	r1, #12
 8000334:	187b      	adds	r3, r7, r1
 8000336:	2205      	movs	r2, #5
 8000338:	701a      	strb	r2, [r3, #0]
 800033a:	187b      	adds	r3, r7, r1
 800033c:	2200      	movs	r2, #0
 800033e:	705a      	strb	r2, [r3, #1]
 8000340:	e077      	b.n	8000432 <_ZN18AutonomyController6updateEm+0x152>

    if (stateSinceMs_ == 0)
 8000342:	687b      	ldr	r3, [r7, #4]
 8000344:	691b      	ldr	r3, [r3, #16]
 8000346:	2b00      	cmp	r3, #0
 8000348:	d102      	bne.n	8000350 <_ZN18AutonomyController6updateEm+0x70>
        stateSinceMs_ = nowMs;
 800034a:	687b      	ldr	r3, [r7, #4]
 800034c:	683a      	ldr	r2, [r7, #0]
 800034e:	611a      	str	r2, [r3, #16]

    switch (state_)
 8000350:	687b      	ldr	r3, [r7, #4]
 8000352:	7b1b      	ldrb	r3, [r3, #12]
 8000354:	2b02      	cmp	r3, #2
 8000356:	d040      	beq.n	80003da <_ZN18AutonomyController6updateEm+0xfa>
 8000358:	d85e      	bhi.n	8000418 <_ZN18AutonomyController6updateEm+0x138>
 800035a:	2b00      	cmp	r3, #0
 800035c:	d002      	beq.n	8000364 <_ZN18AutonomyController6updateEm+0x84>
 800035e:	2b01      	cmp	r3, #1
 8000360:	d01c      	beq.n	800039c <_ZN18AutonomyController6updateEm+0xbc>
 8000362:	e059      	b.n	8000418 <_ZN18AutonomyController6updateEm+0x138>
    {
        case State::Forward:
            if (frontBlocked_())
 8000364:	687b      	ldr	r3, [r7, #4]
 8000366:	0018      	movs	r0, r3
 8000368:	f7ff ff88 	bl	800027c <_ZN18AutonomyController13frontBlocked_Ev>
 800036c:	1e03      	subs	r3, r0, #0
 800036e:	d00d      	beq.n	800038c <_ZN18AutonomyController6updateEm+0xac>
            {
                state_ = State::Reverse;
 8000370:	687b      	ldr	r3, [r7, #4]
 8000372:	2201      	movs	r2, #1
 8000374:	731a      	strb	r2, [r3, #12]
                stateSinceMs_ = nowMs;
 8000376:	687b      	ldr	r3, [r7, #4]
 8000378:	683a      	ldr	r2, [r7, #0]
 800037a:	611a      	str	r2, [r3, #16]
                return {CommandType::Stop, 0};
 800037c:	210c      	movs	r1, #12
 800037e:	187b      	adds	r3, r7, r1
 8000380:	2205      	movs	r2, #5
 8000382:	701a      	strb	r2, [r3, #0]
 8000384:	187b      	adds	r3, r7, r1
 8000386:	2200      	movs	r2, #0
 8000388:	705a      	strb	r2, [r3, #1]
 800038a:	e052      	b.n	8000432 <_ZN18AutonomyController6updateEm+0x152>
            }
            return {CommandType::Forward, 0};
 800038c:	210c      	movs	r1, #12
 800038e:	187b      	adds	r3, r7, r1
 8000390:	2201      	movs	r2, #1
 8000392:	701a      	strb	r2, [r3, #0]
 8000394:	187b      	adds	r3, r7, r1
 8000396:	2200      	movs	r2, #0
 8000398:	705a      	strb	r2, [r3, #1]
 800039a:	e04a      	b.n	8000432 <_ZN18AutonomyController6updateEm+0x152>

        case State::Reverse:
            if ((uint32_t)(nowMs - stateSinceMs_) >= params_->reverseTimeMs)
 800039c:	687b      	ldr	r3, [r7, #4]
 800039e:	691b      	ldr	r3, [r3, #16]
 80003a0:	683a      	ldr	r2, [r7, #0]
 80003a2:	1ad2      	subs	r2, r2, r3
 80003a4:	687b      	ldr	r3, [r7, #4]
 80003a6:	681b      	ldr	r3, [r3, #0]
 80003a8:	691b      	ldr	r3, [r3, #16]
 80003aa:	429a      	cmp	r2, r3
 80003ac:	d30d      	bcc.n	80003ca <_ZN18AutonomyController6updateEm+0xea>
            {
                state_ = State::Turn;
 80003ae:	687b      	ldr	r3, [r7, #4]
 80003b0:	2202      	movs	r2, #2
 80003b2:	731a      	strb	r2, [r3, #12]
                stateSinceMs_ = nowMs;
 80003b4:	687b      	ldr	r3, [r7, #4]
 80003b6:	683a      	ldr	r2, [r7, #0]
 80003b8:	611a      	str	r2, [r3, #16]
                return {CommandType::Stop, 0};
 80003ba:	210c      	movs	r1, #12
 80003bc:	187b      	adds	r3, r7, r1
 80003be:	2205      	movs	r2, #5
 80003c0:	701a      	strb	r2, [r3, #0]
 80003c2:	187b      	adds	r3, r7, r1
 80003c4:	2200      	movs	r2, #0
 80003c6:	705a      	strb	r2, [r3, #1]
 80003c8:	e033      	b.n	8000432 <_ZN18AutonomyController6updateEm+0x152>
            }
            return {CommandType::Backward, 0};
 80003ca:	210c      	movs	r1, #12
 80003cc:	187b      	adds	r3, r7, r1
 80003ce:	2202      	movs	r2, #2
 80003d0:	701a      	strb	r2, [r3, #0]
 80003d2:	187b      	adds	r3, r7, r1
 80003d4:	2200      	movs	r2, #0
 80003d6:	705a      	strb	r2, [r3, #1]
 80003d8:	e02b      	b.n	8000432 <_ZN18AutonomyController6updateEm+0x152>

        case State::Turn:
            if ((uint32_t)(nowMs - stateSinceMs_) >= params_->turnTimeMs)
 80003da:	687b      	ldr	r3, [r7, #4]
 80003dc:	691b      	ldr	r3, [r3, #16]
 80003de:	683a      	ldr	r2, [r7, #0]
 80003e0:	1ad2      	subs	r2, r2, r3
 80003e2:	687b      	ldr	r3, [r7, #4]
 80003e4:	681b      	ldr	r3, [r3, #0]
 80003e6:	695b      	ldr	r3, [r3, #20]
 80003e8:	429a      	cmp	r2, r3
 80003ea:	d30d      	bcc.n	8000408 <_ZN18AutonomyController6updateEm+0x128>
            {
                state_ = State::Forward;
 80003ec:	687b      	ldr	r3, [r7, #4]
 80003ee:	2200      	movs	r2, #0
 80003f0:	731a      	strb	r2, [r3, #12]
                stateSinceMs_ = nowMs;
 80003f2:	687b      	ldr	r3, [r7, #4]
 80003f4:	683a      	ldr	r2, [r7, #0]
 80003f6:	611a      	str	r2, [r3, #16]
                return {CommandType::Forward, 0};
 80003f8:	210c      	movs	r1, #12
 80003fa:	187b      	adds	r3, r7, r1
 80003fc:	2201      	movs	r2, #1
 80003fe:	701a      	strb	r2, [r3, #0]
 8000400:	187b      	adds	r3, r7, r1
 8000402:	2200      	movs	r2, #0
 8000404:	705a      	strb	r2, [r3, #1]
 8000406:	e014      	b.n	8000432 <_ZN18AutonomyController6updateEm+0x152>
            }
            return {CommandType::TurnLeft, 0};
 8000408:	210c      	movs	r1, #12
 800040a:	187b      	adds	r3, r7, r1
 800040c:	2203      	movs	r2, #3
 800040e:	701a      	strb	r2, [r3, #0]
 8000410:	187b      	adds	r3, r7, r1
 8000412:	2200      	movs	r2, #0
 8000414:	705a      	strb	r2, [r3, #1]
 8000416:	e00c      	b.n	8000432 <_ZN18AutonomyController6updateEm+0x152>

        case State::Stop:
        default:
            state_ = State::Forward;
 8000418:	687b      	ldr	r3, [r7, #4]
 800041a:	2200      	movs	r2, #0
 800041c:	731a      	strb	r2, [r3, #12]
            stateSinceMs_ = nowMs;
 800041e:	687b      	ldr	r3, [r7, #4]
 8000420:	683a      	ldr	r2, [r7, #0]
 8000422:	611a      	str	r2, [r3, #16]
            return {CommandType::Stop, 0};
 8000424:	210c      	movs	r1, #12
 8000426:	187b      	adds	r3, r7, r1
 8000428:	2205      	movs	r2, #5
 800042a:	701a      	strb	r2, [r3, #0]
 800042c:	187b      	adds	r3, r7, r1
 800042e:	2200      	movs	r2, #0
 8000430:	705a      	strb	r2, [r3, #1]
    }
}
 8000432:	230c      	movs	r3, #12
 8000434:	18fa      	adds	r2, r7, r3
 8000436:	2300      	movs	r3, #0
 8000438:	7811      	ldrb	r1, [r2, #0]
 800043a:	20ff      	movs	r0, #255	@ 0xff
 800043c:	4001      	ands	r1, r0
 800043e:	20ff      	movs	r0, #255	@ 0xff
 8000440:	4383      	bics	r3, r0
 8000442:	430b      	orrs	r3, r1
 8000444:	7852      	ldrb	r2, [r2, #1]
 8000446:	21ff      	movs	r1, #255	@ 0xff
 8000448:	400a      	ands	r2, r1
 800044a:	0212      	lsls	r2, r2, #8
 800044c:	4903      	ldr	r1, [pc, #12]	@ (800045c <_ZN18AutonomyController6updateEm+0x17c>)
 800044e:	400b      	ands	r3, r1
 8000450:	4313      	orrs	r3, r2
 8000452:	1c18      	adds	r0, r3, #0
 8000454:	46bd      	mov	sp, r7
 8000456:	b004      	add	sp, #16
 8000458:	bd80      	pop	{r7, pc}
 800045a:	46c0      	nop			@ (mov r8, r8)
 800045c:	ffff00ff 	.word	0xffff00ff

08000460 <_ZN6Lights4initEv>:
#include "hw/BoardPins.hpp"
#include "hw/Clock.hpp"
#include "hw/Gpio.hpp"

void Lights::init()
{
 8000460:	b580      	push	{r7, lr}
 8000462:	b082      	sub	sp, #8
 8000464:	af00      	add	r7, sp, #0
 8000466:	6078      	str	r0, [r7, #4]
    Clock::enableGpioClock(BoardPins::HEADLIGHT_PORT);
 8000468:	2390      	movs	r3, #144	@ 0x90
 800046a:	05db      	lsls	r3, r3, #23
 800046c:	0018      	movs	r0, r3
 800046e:	f000 fb67 	bl	8000b40 <_ZN5Clock15enableGpioClockEP12GPIO_TypeDef>
    Clock::enableGpioClock(BoardPins::STOPLIGHT_PORT);
 8000472:	2390      	movs	r3, #144	@ 0x90
 8000474:	05db      	lsls	r3, r3, #23
 8000476:	0018      	movs	r0, r3
 8000478:	f000 fb62 	bl	8000b40 <_ZN5Clock15enableGpioClockEP12GPIO_TypeDef>

    Gpio::configureOutput(BoardPins::HEADLIGHT_PORT, BoardPins::HEADLIGHT_PIN);
 800047c:	2390      	movs	r3, #144	@ 0x90
 800047e:	05db      	lsls	r3, r3, #23
 8000480:	2120      	movs	r1, #32
 8000482:	0018      	movs	r0, r3
 8000484:	f000 fbaa 	bl	8000bdc <_ZN4Gpio15configureOutputEP12GPIO_TypeDeft>
    Gpio::configureOutput(BoardPins::STOPLIGHT_PORT, BoardPins::STOPLIGHT_PIN);
 8000488:	2390      	movs	r3, #144	@ 0x90
 800048a:	05db      	lsls	r3, r3, #23
 800048c:	2110      	movs	r1, #16
 800048e:	0018      	movs	r0, r3
 8000490:	f000 fba4 	bl	8000bdc <_ZN4Gpio15configureOutputEP12GPIO_TypeDeft>

    enabled_ = true;
 8000494:	687b      	ldr	r3, [r7, #4]
 8000496:	2201      	movs	r2, #1
 8000498:	709a      	strb	r2, [r3, #2]
    allOff();
 800049a:	687b      	ldr	r3, [r7, #4]
 800049c:	0018      	movs	r0, r3
 800049e:	f000 f838 	bl	8000512 <_ZN6Lights6allOffEv>
}
 80004a2:	46c0      	nop			@ (mov r8, r8)
 80004a4:	46bd      	mov	sp, r7
 80004a6:	b002      	add	sp, #8
 80004a8:	bd80      	pop	{r7, pc}

080004aa <_ZN6Lights12setHeadlightEb>:
    applyOne_(cfg_.headlight, autoHeadlight, true);
    applyOne_(cfg_.stoplight, autoStoplight, false);
}

void Lights::setHeadlight(bool on)
{
 80004aa:	b580      	push	{r7, lr}
 80004ac:	b082      	sub	sp, #8
 80004ae:	af00      	add	r7, sp, #0
 80004b0:	6078      	str	r0, [r7, #4]
 80004b2:	000a      	movs	r2, r1
 80004b4:	1cfb      	adds	r3, r7, #3
 80004b6:	701a      	strb	r2, [r3, #0]
    if (!enabled_) return;
 80004b8:	687b      	ldr	r3, [r7, #4]
 80004ba:	789b      	ldrb	r3, [r3, #2]
 80004bc:	2201      	movs	r2, #1
 80004be:	4053      	eors	r3, r2
 80004c0:	b2db      	uxtb	r3, r3
 80004c2:	2b00      	cmp	r3, #0
 80004c4:	d107      	bne.n	80004d6 <_ZN6Lights12setHeadlightEb+0x2c>
    write_(true, on);
 80004c6:	1cfb      	adds	r3, r7, #3
 80004c8:	781a      	ldrb	r2, [r3, #0]
 80004ca:	687b      	ldr	r3, [r7, #4]
 80004cc:	2101      	movs	r1, #1
 80004ce:	0018      	movs	r0, r3
 80004d0:	f000 f833 	bl	800053a <_ZN6Lights6write_Ebb>
 80004d4:	e000      	b.n	80004d8 <_ZN6Lights12setHeadlightEb+0x2e>
    if (!enabled_) return;
 80004d6:	46c0      	nop			@ (mov r8, r8)
}
 80004d8:	46bd      	mov	sp, r7
 80004da:	b002      	add	sp, #8
 80004dc:	bd80      	pop	{r7, pc}

080004de <_ZN6Lights12setStoplightEb>:

void Lights::setStoplight(bool on)
{
 80004de:	b580      	push	{r7, lr}
 80004e0:	b082      	sub	sp, #8
 80004e2:	af00      	add	r7, sp, #0
 80004e4:	6078      	str	r0, [r7, #4]
 80004e6:	000a      	movs	r2, r1
 80004e8:	1cfb      	adds	r3, r7, #3
 80004ea:	701a      	strb	r2, [r3, #0]
    if (!enabled_) return;
 80004ec:	687b      	ldr	r3, [r7, #4]
 80004ee:	789b      	ldrb	r3, [r3, #2]
 80004f0:	2201      	movs	r2, #1
 80004f2:	4053      	eors	r3, r2
 80004f4:	b2db      	uxtb	r3, r3
 80004f6:	2b00      	cmp	r3, #0
 80004f8:	d107      	bne.n	800050a <_ZN6Lights12setStoplightEb+0x2c>
    write_(false, on);
 80004fa:	1cfb      	adds	r3, r7, #3
 80004fc:	781a      	ldrb	r2, [r3, #0]
 80004fe:	687b      	ldr	r3, [r7, #4]
 8000500:	2100      	movs	r1, #0
 8000502:	0018      	movs	r0, r3
 8000504:	f000 f819 	bl	800053a <_ZN6Lights6write_Ebb>
 8000508:	e000      	b.n	800050c <_ZN6Lights12setStoplightEb+0x2e>
    if (!enabled_) return;
 800050a:	46c0      	nop			@ (mov r8, r8)
}
 800050c:	46bd      	mov	sp, r7
 800050e:	b002      	add	sp, #8
 8000510:	bd80      	pop	{r7, pc}

08000512 <_ZN6Lights6allOffEv>:

void Lights::allOff()
{
 8000512:	b580      	push	{r7, lr}
 8000514:	b082      	sub	sp, #8
 8000516:	af00      	add	r7, sp, #0
 8000518:	6078      	str	r0, [r7, #4]
    write_(true, false);
 800051a:	687b      	ldr	r3, [r7, #4]
 800051c:	2200      	movs	r2, #0
 800051e:	2101      	movs	r1, #1
 8000520:	0018      	movs	r0, r3
 8000522:	f000 f80a 	bl	800053a <_ZN6Lights6write_Ebb>
    write_(false, false);
 8000526:	687b      	ldr	r3, [r7, #4]
 8000528:	2200      	movs	r2, #0
 800052a:	2100      	movs	r1, #0
 800052c:	0018      	movs	r0, r3
 800052e:	f000 f804 	bl	800053a <_ZN6Lights6write_Ebb>
}
 8000532:	46c0      	nop			@ (mov r8, r8)
 8000534:	46bd      	mov	sp, r7
 8000536:	b002      	add	sp, #8
 8000538:	bd80      	pop	{r7, pc}

0800053a <_ZN6Lights6write_Ebb>:

    write_(isHeadlight, on);
}

void Lights::write_(bool isHeadlight, bool on)
{
 800053a:	b580      	push	{r7, lr}
 800053c:	b084      	sub	sp, #16
 800053e:	af00      	add	r7, sp, #0
 8000540:	6078      	str	r0, [r7, #4]
 8000542:	0008      	movs	r0, r1
 8000544:	0011      	movs	r1, r2
 8000546:	1cfb      	adds	r3, r7, #3
 8000548:	1c02      	adds	r2, r0, #0
 800054a:	701a      	strb	r2, [r3, #0]
 800054c:	1cbb      	adds	r3, r7, #2
 800054e:	1c0a      	adds	r2, r1, #0
 8000550:	701a      	strb	r2, [r3, #0]
    GPIO_TypeDef* port = isHeadlight ? BoardPins::HEADLIGHT_PORT : BoardPins::STOPLIGHT_PORT;
 8000552:	1cfb      	adds	r3, r7, #3
 8000554:	781b      	ldrb	r3, [r3, #0]
 8000556:	2b00      	cmp	r3, #0
 8000558:	d002      	beq.n	8000560 <_ZN6Lights6write_Ebb+0x26>
 800055a:	2390      	movs	r3, #144	@ 0x90
 800055c:	05db      	lsls	r3, r3, #23
 800055e:	e001      	b.n	8000564 <_ZN6Lights6write_Ebb+0x2a>
 8000560:	2390      	movs	r3, #144	@ 0x90
 8000562:	05db      	lsls	r3, r3, #23
 8000564:	60fb      	str	r3, [r7, #12]
    uint16_t pin       = isHeadlight ? BoardPins::HEADLIGHT_PIN  : BoardPins::STOPLIGHT_PIN;
 8000566:	1cfb      	adds	r3, r7, #3
 8000568:	781b      	ldrb	r3, [r3, #0]
 800056a:	2b00      	cmp	r3, #0
 800056c:	d001      	beq.n	8000572 <_ZN6Lights6write_Ebb+0x38>
 800056e:	2220      	movs	r2, #32
 8000570:	e000      	b.n	8000574 <_ZN6Lights6write_Ebb+0x3a>
 8000572:	2210      	movs	r2, #16
 8000574:	210a      	movs	r1, #10
 8000576:	187b      	adds	r3, r7, r1
 8000578:	801a      	strh	r2, [r3, #0]

    if (on) Gpio::setHigh(port, pin);
 800057a:	1cbb      	adds	r3, r7, #2
 800057c:	781b      	ldrb	r3, [r3, #0]
 800057e:	2b00      	cmp	r3, #0
 8000580:	d007      	beq.n	8000592 <_ZN6Lights6write_Ebb+0x58>
 8000582:	187b      	adds	r3, r7, r1
 8000584:	881a      	ldrh	r2, [r3, #0]
 8000586:	68fb      	ldr	r3, [r7, #12]
 8000588:	0011      	movs	r1, r2
 800058a:	0018      	movs	r0, r3
 800058c:	f000 fc78 	bl	8000e80 <_ZN4Gpio7setHighEP12GPIO_TypeDeft>
    else    Gpio::setLow(port, pin);
}
 8000590:	e007      	b.n	80005a2 <_ZN6Lights6write_Ebb+0x68>
    else    Gpio::setLow(port, pin);
 8000592:	230a      	movs	r3, #10
 8000594:	18fb      	adds	r3, r7, r3
 8000596:	881a      	ldrh	r2, [r3, #0]
 8000598:	68fb      	ldr	r3, [r7, #12]
 800059a:	0011      	movs	r1, r2
 800059c:	0018      	movs	r0, r3
 800059e:	f000 fc7e 	bl	8000e9e <_ZN4Gpio6setLowEP12GPIO_TypeDeft>
}
 80005a2:	46c0      	nop			@ (mov r8, r8)
 80005a4:	46bd      	mov	sp, r7
 80005a6:	b004      	add	sp, #16
 80005a8:	bd80      	pop	{r7, pc}
	...

080005ac <_ZN11MotorDriver4initEv>:
#include "hw/Gpio.hpp"

#include "stm32f0xx.h"

void MotorDriver::init()
{
 80005ac:	b580      	push	{r7, lr}
 80005ae:	b082      	sub	sp, #8
 80005b0:	af00      	add	r7, sp, #0
 80005b2:	6078      	str	r0, [r7, #4]
    Clock::enableGpioClock(BoardPins::STBY_PORT);
 80005b4:	4b40      	ldr	r3, [pc, #256]	@ (80006b8 <_ZN11MotorDriver4initEv+0x10c>)
 80005b6:	0018      	movs	r0, r3
 80005b8:	f000 fac2 	bl	8000b40 <_ZN5Clock15enableGpioClockEP12GPIO_TypeDef>

    Clock::enableGpioClock(BoardPins::FL_IN1_PORT);
 80005bc:	4b3e      	ldr	r3, [pc, #248]	@ (80006b8 <_ZN11MotorDriver4initEv+0x10c>)
 80005be:	0018      	movs	r0, r3
 80005c0:	f000 fabe 	bl	8000b40 <_ZN5Clock15enableGpioClockEP12GPIO_TypeDef>
    Clock::enableGpioClock(BoardPins::FL_IN2_PORT);
 80005c4:	4b3c      	ldr	r3, [pc, #240]	@ (80006b8 <_ZN11MotorDriver4initEv+0x10c>)
 80005c6:	0018      	movs	r0, r3
 80005c8:	f000 faba 	bl	8000b40 <_ZN5Clock15enableGpioClockEP12GPIO_TypeDef>
    Clock::enableGpioClock(BoardPins::RL_IN1_PORT);
 80005cc:	4b3a      	ldr	r3, [pc, #232]	@ (80006b8 <_ZN11MotorDriver4initEv+0x10c>)
 80005ce:	0018      	movs	r0, r3
 80005d0:	f000 fab6 	bl	8000b40 <_ZN5Clock15enableGpioClockEP12GPIO_TypeDef>
    Clock::enableGpioClock(BoardPins::RL_IN2_PORT);
 80005d4:	4b38      	ldr	r3, [pc, #224]	@ (80006b8 <_ZN11MotorDriver4initEv+0x10c>)
 80005d6:	0018      	movs	r0, r3
 80005d8:	f000 fab2 	bl	8000b40 <_ZN5Clock15enableGpioClockEP12GPIO_TypeDef>

    Clock::enableGpioClock(BoardPins::FR_IN1_PORT);
 80005dc:	4b36      	ldr	r3, [pc, #216]	@ (80006b8 <_ZN11MotorDriver4initEv+0x10c>)
 80005de:	0018      	movs	r0, r3
 80005e0:	f000 faae 	bl	8000b40 <_ZN5Clock15enableGpioClockEP12GPIO_TypeDef>
    Clock::enableGpioClock(BoardPins::FR_IN2_PORT);
 80005e4:	4b34      	ldr	r3, [pc, #208]	@ (80006b8 <_ZN11MotorDriver4initEv+0x10c>)
 80005e6:	0018      	movs	r0, r3
 80005e8:	f000 faaa 	bl	8000b40 <_ZN5Clock15enableGpioClockEP12GPIO_TypeDef>
    Clock::enableGpioClock(BoardPins::RR_IN1_PORT);
 80005ec:	4b32      	ldr	r3, [pc, #200]	@ (80006b8 <_ZN11MotorDriver4initEv+0x10c>)
 80005ee:	0018      	movs	r0, r3
 80005f0:	f000 faa6 	bl	8000b40 <_ZN5Clock15enableGpioClockEP12GPIO_TypeDef>
    Clock::enableGpioClock(BoardPins::RR_IN2_PORT);
 80005f4:	4b30      	ldr	r3, [pc, #192]	@ (80006b8 <_ZN11MotorDriver4initEv+0x10c>)
 80005f6:	0018      	movs	r0, r3
 80005f8:	f000 faa2 	bl	8000b40 <_ZN5Clock15enableGpioClockEP12GPIO_TypeDef>

    Clock::enableGpioClock(BoardPins::PWM_CH1_PORT);
 80005fc:	2390      	movs	r3, #144	@ 0x90
 80005fe:	05db      	lsls	r3, r3, #23
 8000600:	0018      	movs	r0, r3
 8000602:	f000 fa9d 	bl	8000b40 <_ZN5Clock15enableGpioClockEP12GPIO_TypeDef>
    Clock::enableGpioClock(BoardPins::PWM_CH2_PORT);
 8000606:	2390      	movs	r3, #144	@ 0x90
 8000608:	05db      	lsls	r3, r3, #23
 800060a:	0018      	movs	r0, r3
 800060c:	f000 fa98 	bl	8000b40 <_ZN5Clock15enableGpioClockEP12GPIO_TypeDef>
    Clock::enableGpioClock(BoardPins::PWM_CH3_PORT);
 8000610:	4b29      	ldr	r3, [pc, #164]	@ (80006b8 <_ZN11MotorDriver4initEv+0x10c>)
 8000612:	0018      	movs	r0, r3
 8000614:	f000 fa94 	bl	8000b40 <_ZN5Clock15enableGpioClockEP12GPIO_TypeDef>
    Clock::enableGpioClock(BoardPins::PWM_CH4_PORT);
 8000618:	4b27      	ldr	r3, [pc, #156]	@ (80006b8 <_ZN11MotorDriver4initEv+0x10c>)
 800061a:	0018      	movs	r0, r3
 800061c:	f000 fa90 	bl	8000b40 <_ZN5Clock15enableGpioClockEP12GPIO_TypeDef>

    Gpio::configureOutput(BoardPins::STBY_PORT, BoardPins::STBY_PIN);
 8000620:	4b25      	ldr	r3, [pc, #148]	@ (80006b8 <_ZN11MotorDriver4initEv+0x10c>)
 8000622:	2108      	movs	r1, #8
 8000624:	0018      	movs	r0, r3
 8000626:	f000 fad9 	bl	8000bdc <_ZN4Gpio15configureOutputEP12GPIO_TypeDeft>

    Gpio::configureOutput(BoardPins::FL_IN1_PORT, BoardPins::FL_IN1_PIN);
 800062a:	4b23      	ldr	r3, [pc, #140]	@ (80006b8 <_ZN11MotorDriver4initEv+0x10c>)
 800062c:	2110      	movs	r1, #16
 800062e:	0018      	movs	r0, r3
 8000630:	f000 fad4 	bl	8000bdc <_ZN4Gpio15configureOutputEP12GPIO_TypeDeft>
    Gpio::configureOutput(BoardPins::FL_IN2_PORT, BoardPins::FL_IN2_PIN);
 8000634:	4b20      	ldr	r3, [pc, #128]	@ (80006b8 <_ZN11MotorDriver4initEv+0x10c>)
 8000636:	2120      	movs	r1, #32
 8000638:	0018      	movs	r0, r3
 800063a:	f000 facf 	bl	8000bdc <_ZN4Gpio15configureOutputEP12GPIO_TypeDeft>
    Gpio::configureOutput(BoardPins::RL_IN1_PORT, BoardPins::RL_IN1_PIN);
 800063e:	4b1e      	ldr	r3, [pc, #120]	@ (80006b8 <_ZN11MotorDriver4initEv+0x10c>)
 8000640:	2140      	movs	r1, #64	@ 0x40
 8000642:	0018      	movs	r0, r3
 8000644:	f000 faca 	bl	8000bdc <_ZN4Gpio15configureOutputEP12GPIO_TypeDeft>
    Gpio::configureOutput(BoardPins::RL_IN2_PORT, BoardPins::RL_IN2_PIN);
 8000648:	4b1b      	ldr	r3, [pc, #108]	@ (80006b8 <_ZN11MotorDriver4initEv+0x10c>)
 800064a:	2180      	movs	r1, #128	@ 0x80
 800064c:	0018      	movs	r0, r3
 800064e:	f000 fac5 	bl	8000bdc <_ZN4Gpio15configureOutputEP12GPIO_TypeDeft>

    Gpio::configureOutput(BoardPins::FR_IN1_PORT, BoardPins::FR_IN1_PIN);
 8000652:	2380      	movs	r3, #128	@ 0x80
 8000654:	005b      	lsls	r3, r3, #1
 8000656:	4a18      	ldr	r2, [pc, #96]	@ (80006b8 <_ZN11MotorDriver4initEv+0x10c>)
 8000658:	0019      	movs	r1, r3
 800065a:	0010      	movs	r0, r2
 800065c:	f000 fabe 	bl	8000bdc <_ZN4Gpio15configureOutputEP12GPIO_TypeDeft>
    Gpio::configureOutput(BoardPins::FR_IN2_PORT, BoardPins::FR_IN2_PIN);
 8000660:	2380      	movs	r3, #128	@ 0x80
 8000662:	009b      	lsls	r3, r3, #2
 8000664:	4a14      	ldr	r2, [pc, #80]	@ (80006b8 <_ZN11MotorDriver4initEv+0x10c>)
 8000666:	0019      	movs	r1, r3
 8000668:	0010      	movs	r0, r2
 800066a:	f000 fab7 	bl	8000bdc <_ZN4Gpio15configureOutputEP12GPIO_TypeDeft>
    Gpio::configureOutput(BoardPins::RR_IN1_PORT, BoardPins::RR_IN1_PIN);
 800066e:	2380      	movs	r3, #128	@ 0x80
 8000670:	00db      	lsls	r3, r3, #3
 8000672:	4a11      	ldr	r2, [pc, #68]	@ (80006b8 <_ZN11MotorDriver4initEv+0x10c>)
 8000674:	0019      	movs	r1, r3
 8000676:	0010      	movs	r0, r2
 8000678:	f000 fab0 	bl	8000bdc <_ZN4Gpio15configureOutputEP12GPIO_TypeDeft>
    Gpio::configureOutput(BoardPins::RR_IN2_PORT, BoardPins::RR_IN2_PIN);
 800067c:	2380      	movs	r3, #128	@ 0x80
 800067e:	011b      	lsls	r3, r3, #4
 8000680:	4a0d      	ldr	r2, [pc, #52]	@ (80006b8 <_ZN11MotorDriver4initEv+0x10c>)
 8000682:	0019      	movs	r1, r3
 8000684:	0010      	movs	r0, r2
 8000686:	f000 faa9 	bl	8000bdc <_ZN4Gpio15configureOutputEP12GPIO_TypeDeft>

    stop();
 800068a:	687b      	ldr	r3, [r7, #4]
 800068c:	0018      	movs	r0, r3
 800068e:	f000 f907 	bl	80008a0 <_ZN11MotorDriver4stopEv>
    disable();
 8000692:	687b      	ldr	r3, [r7, #4]
 8000694:	0018      	movs	r0, r3
 8000696:	f000 f823 	bl	80006e0 <_ZN11MotorDriver7disableEv>

    initPwmTim3_(20000);
 800069a:	4a08      	ldr	r2, [pc, #32]	@ (80006bc <_ZN11MotorDriver4initEv+0x110>)
 800069c:	687b      	ldr	r3, [r7, #4]
 800069e:	0011      	movs	r1, r2
 80006a0:	0018      	movs	r0, r3
 80006a2:	f000 f831 	bl	8000708 <_ZN11MotorDriver12initPwmTim3_Em>
    setSpeedPercent(0);
 80006a6:	687b      	ldr	r3, [r7, #4]
 80006a8:	2100      	movs	r1, #0
 80006aa:	0018      	movs	r0, r3
 80006ac:	f000 f8c8 	bl	8000840 <_ZN11MotorDriver15setSpeedPercentEh>
}
 80006b0:	46c0      	nop			@ (mov r8, r8)
 80006b2:	46bd      	mov	sp, r7
 80006b4:	b002      	add	sp, #8
 80006b6:	bd80      	pop	{r7, pc}
 80006b8:	48000400 	.word	0x48000400
 80006bc:	00004e20 	.word	0x00004e20

080006c0 <_ZN11MotorDriver6enableEv>:

void MotorDriver::enable()
{
 80006c0:	b580      	push	{r7, lr}
 80006c2:	b082      	sub	sp, #8
 80006c4:	af00      	add	r7, sp, #0
 80006c6:	6078      	str	r0, [r7, #4]
    Gpio::setHigh(BoardPins::STBY_PORT, BoardPins::STBY_PIN);
 80006c8:	4b04      	ldr	r3, [pc, #16]	@ (80006dc <_ZN11MotorDriver6enableEv+0x1c>)
 80006ca:	2108      	movs	r1, #8
 80006cc:	0018      	movs	r0, r3
 80006ce:	f000 fbd7 	bl	8000e80 <_ZN4Gpio7setHighEP12GPIO_TypeDeft>
}
 80006d2:	46c0      	nop			@ (mov r8, r8)
 80006d4:	46bd      	mov	sp, r7
 80006d6:	b002      	add	sp, #8
 80006d8:	bd80      	pop	{r7, pc}
 80006da:	46c0      	nop			@ (mov r8, r8)
 80006dc:	48000400 	.word	0x48000400

080006e0 <_ZN11MotorDriver7disableEv>:

void MotorDriver::disable()
{
 80006e0:	b580      	push	{r7, lr}
 80006e2:	b082      	sub	sp, #8
 80006e4:	af00      	add	r7, sp, #0
 80006e6:	6078      	str	r0, [r7, #4]
    stop();
 80006e8:	687b      	ldr	r3, [r7, #4]
 80006ea:	0018      	movs	r0, r3
 80006ec:	f000 f8d8 	bl	80008a0 <_ZN11MotorDriver4stopEv>
    Gpio::setLow(BoardPins::STBY_PORT, BoardPins::STBY_PIN);
 80006f0:	4b04      	ldr	r3, [pc, #16]	@ (8000704 <_ZN11MotorDriver7disableEv+0x24>)
 80006f2:	2108      	movs	r1, #8
 80006f4:	0018      	movs	r0, r3
 80006f6:	f000 fbd2 	bl	8000e9e <_ZN4Gpio6setLowEP12GPIO_TypeDeft>
}
 80006fa:	46c0      	nop			@ (mov r8, r8)
 80006fc:	46bd      	mov	sp, r7
 80006fe:	b002      	add	sp, #8
 8000700:	bd80      	pop	{r7, pc}
 8000702:	46c0      	nop			@ (mov r8, r8)
 8000704:	48000400 	.word	0x48000400

08000708 <_ZN11MotorDriver12initPwmTim3_Em>:

void MotorDriver::initPwmTim3_(uint32_t pwm_hz)
{
 8000708:	b580      	push	{r7, lr}
 800070a:	b084      	sub	sp, #16
 800070c:	af00      	add	r7, sp, #0
 800070e:	6078      	str	r0, [r7, #4]
 8000710:	6039      	str	r1, [r7, #0]
    RCC->APB1ENR |= RCC_APB1ENR_TIM3EN;
 8000712:	4b2e      	ldr	r3, [pc, #184]	@ (80007cc <_ZN11MotorDriver12initPwmTim3_Em+0xc4>)
 8000714:	69da      	ldr	r2, [r3, #28]
 8000716:	4b2d      	ldr	r3, [pc, #180]	@ (80007cc <_ZN11MotorDriver12initPwmTim3_Em+0xc4>)
 8000718:	2102      	movs	r1, #2
 800071a:	430a      	orrs	r2, r1
 800071c:	61da      	str	r2, [r3, #28]

    Gpio::configureAltFunction(BoardPins::PWM_CH1_PORT, BoardPins::PWM_CH1_PIN, 1);
 800071e:	2390      	movs	r3, #144	@ 0x90
 8000720:	05db      	lsls	r3, r3, #23
 8000722:	2201      	movs	r2, #1
 8000724:	2140      	movs	r1, #64	@ 0x40
 8000726:	0018      	movs	r0, r3
 8000728:	f000 fb1b 	bl	8000d62 <_ZN4Gpio20configureAltFunctionEP12GPIO_TypeDefth>
    Gpio::configureAltFunction(BoardPins::PWM_CH2_PORT, BoardPins::PWM_CH2_PIN, 1);
 800072c:	2390      	movs	r3, #144	@ 0x90
 800072e:	05db      	lsls	r3, r3, #23
 8000730:	2201      	movs	r2, #1
 8000732:	2180      	movs	r1, #128	@ 0x80
 8000734:	0018      	movs	r0, r3
 8000736:	f000 fb14 	bl	8000d62 <_ZN4Gpio20configureAltFunctionEP12GPIO_TypeDefth>
    Gpio::configureAltFunction(BoardPins::PWM_CH3_PORT, BoardPins::PWM_CH3_PIN, 1);
 800073a:	4b25      	ldr	r3, [pc, #148]	@ (80007d0 <_ZN11MotorDriver12initPwmTim3_Em+0xc8>)
 800073c:	2201      	movs	r2, #1
 800073e:	2101      	movs	r1, #1
 8000740:	0018      	movs	r0, r3
 8000742:	f000 fb0e 	bl	8000d62 <_ZN4Gpio20configureAltFunctionEP12GPIO_TypeDefth>
    Gpio::configureAltFunction(BoardPins::PWM_CH4_PORT, BoardPins::PWM_CH4_PIN, 1);
 8000746:	4b22      	ldr	r3, [pc, #136]	@ (80007d0 <_ZN11MotorDriver12initPwmTim3_Em+0xc8>)
 8000748:	2201      	movs	r2, #1
 800074a:	2102      	movs	r1, #2
 800074c:	0018      	movs	r0, r3
 800074e:	f000 fb08 	bl	8000d62 <_ZN4Gpio20configureAltFunctionEP12GPIO_TypeDefth>

    TIM3->PSC = 48 - 1;
 8000752:	4b20      	ldr	r3, [pc, #128]	@ (80007d4 <_ZN11MotorDriver12initPwmTim3_Em+0xcc>)
 8000754:	222f      	movs	r2, #47	@ 0x2f
 8000756:	629a      	str	r2, [r3, #40]	@ 0x28

    uint32_t arr = (1'000'000u / pwm_hz) - 1u;
 8000758:	6839      	ldr	r1, [r7, #0]
 800075a:	481f      	ldr	r0, [pc, #124]	@ (80007d8 <_ZN11MotorDriver12initPwmTim3_Em+0xd0>)
 800075c:	f7ff fcdc 	bl	8000118 <__udivsi3>
 8000760:	0003      	movs	r3, r0
 8000762:	3b01      	subs	r3, #1
 8000764:	60fb      	str	r3, [r7, #12]
    if (arr > 0xFFFFu) arr = 0xFFFFu;
 8000766:	68fa      	ldr	r2, [r7, #12]
 8000768:	2380      	movs	r3, #128	@ 0x80
 800076a:	025b      	lsls	r3, r3, #9
 800076c:	429a      	cmp	r2, r3
 800076e:	d301      	bcc.n	8000774 <_ZN11MotorDriver12initPwmTim3_Em+0x6c>
 8000770:	4b1a      	ldr	r3, [pc, #104]	@ (80007dc <_ZN11MotorDriver12initPwmTim3_Em+0xd4>)
 8000772:	60fb      	str	r3, [r7, #12]
    TIM3->ARR = static_cast<uint16_t>(arr);
 8000774:	68fb      	ldr	r3, [r7, #12]
 8000776:	b29a      	uxth	r2, r3
 8000778:	4b16      	ldr	r3, [pc, #88]	@ (80007d4 <_ZN11MotorDriver12initPwmTim3_Em+0xcc>)
 800077a:	62da      	str	r2, [r3, #44]	@ 0x2c

    TIM3->CCMR1 =
 800077c:	4b15      	ldr	r3, [pc, #84]	@ (80007d4 <_ZN11MotorDriver12initPwmTim3_Em+0xcc>)
 800077e:	4a18      	ldr	r2, [pc, #96]	@ (80007e0 <_ZN11MotorDriver12initPwmTim3_Em+0xd8>)
 8000780:	619a      	str	r2, [r3, #24]
        (6u << TIM_CCMR1_OC1M_Pos) | TIM_CCMR1_OC1PE |
        (6u << TIM_CCMR1_OC2M_Pos) | TIM_CCMR1_OC2PE;

    TIM3->CCMR2 =
 8000782:	4b14      	ldr	r3, [pc, #80]	@ (80007d4 <_ZN11MotorDriver12initPwmTim3_Em+0xcc>)
 8000784:	4a16      	ldr	r2, [pc, #88]	@ (80007e0 <_ZN11MotorDriver12initPwmTim3_Em+0xd8>)
 8000786:	61da      	str	r2, [r3, #28]
        (6u << TIM_CCMR2_OC3M_Pos) | TIM_CCMR2_OC3PE |
        (6u << TIM_CCMR2_OC4M_Pos) | TIM_CCMR2_OC4PE;

    TIM3->CCER = TIM_CCER_CC1E | TIM_CCER_CC2E | TIM_CCER_CC3E | TIM_CCER_CC4E;
 8000788:	4b12      	ldr	r3, [pc, #72]	@ (80007d4 <_ZN11MotorDriver12initPwmTim3_Em+0xcc>)
 800078a:	4a16      	ldr	r2, [pc, #88]	@ (80007e4 <_ZN11MotorDriver12initPwmTim3_Em+0xdc>)
 800078c:	621a      	str	r2, [r3, #32]

    TIM3->CCR1 = 0;
 800078e:	4b11      	ldr	r3, [pc, #68]	@ (80007d4 <_ZN11MotorDriver12initPwmTim3_Em+0xcc>)
 8000790:	2200      	movs	r2, #0
 8000792:	635a      	str	r2, [r3, #52]	@ 0x34
    TIM3->CCR2 = 0;
 8000794:	4b0f      	ldr	r3, [pc, #60]	@ (80007d4 <_ZN11MotorDriver12initPwmTim3_Em+0xcc>)
 8000796:	2200      	movs	r2, #0
 8000798:	639a      	str	r2, [r3, #56]	@ 0x38
    TIM3->CCR3 = 0;
 800079a:	4b0e      	ldr	r3, [pc, #56]	@ (80007d4 <_ZN11MotorDriver12initPwmTim3_Em+0xcc>)
 800079c:	2200      	movs	r2, #0
 800079e:	63da      	str	r2, [r3, #60]	@ 0x3c
    TIM3->CCR4 = 0;
 80007a0:	4b0c      	ldr	r3, [pc, #48]	@ (80007d4 <_ZN11MotorDriver12initPwmTim3_Em+0xcc>)
 80007a2:	2200      	movs	r2, #0
 80007a4:	641a      	str	r2, [r3, #64]	@ 0x40

    TIM3->CR1 |= TIM_CR1_ARPE;
 80007a6:	4b0b      	ldr	r3, [pc, #44]	@ (80007d4 <_ZN11MotorDriver12initPwmTim3_Em+0xcc>)
 80007a8:	681a      	ldr	r2, [r3, #0]
 80007aa:	4b0a      	ldr	r3, [pc, #40]	@ (80007d4 <_ZN11MotorDriver12initPwmTim3_Em+0xcc>)
 80007ac:	2180      	movs	r1, #128	@ 0x80
 80007ae:	430a      	orrs	r2, r1
 80007b0:	601a      	str	r2, [r3, #0]
    TIM3->EGR = TIM_EGR_UG;
 80007b2:	4b08      	ldr	r3, [pc, #32]	@ (80007d4 <_ZN11MotorDriver12initPwmTim3_Em+0xcc>)
 80007b4:	2201      	movs	r2, #1
 80007b6:	615a      	str	r2, [r3, #20]
    TIM3->CR1 |= TIM_CR1_CEN;
 80007b8:	4b06      	ldr	r3, [pc, #24]	@ (80007d4 <_ZN11MotorDriver12initPwmTim3_Em+0xcc>)
 80007ba:	681a      	ldr	r2, [r3, #0]
 80007bc:	4b05      	ldr	r3, [pc, #20]	@ (80007d4 <_ZN11MotorDriver12initPwmTim3_Em+0xcc>)
 80007be:	2101      	movs	r1, #1
 80007c0:	430a      	orrs	r2, r1
 80007c2:	601a      	str	r2, [r3, #0]
}
 80007c4:	46c0      	nop			@ (mov r8, r8)
 80007c6:	46bd      	mov	sp, r7
 80007c8:	b004      	add	sp, #16
 80007ca:	bd80      	pop	{r7, pc}
 80007cc:	40021000 	.word	0x40021000
 80007d0:	48000400 	.word	0x48000400
 80007d4:	40000400 	.word	0x40000400
 80007d8:	000f4240 	.word	0x000f4240
 80007dc:	0000ffff 	.word	0x0000ffff
 80007e0:	00006868 	.word	0x00006868
 80007e4:	00001111 	.word	0x00001111

080007e8 <_ZN11MotorDriver11setDutyAll_Et>:

void MotorDriver::setDutyAll_(uint16_t duty)
{
 80007e8:	b580      	push	{r7, lr}
 80007ea:	b082      	sub	sp, #8
 80007ec:	af00      	add	r7, sp, #0
 80007ee:	6078      	str	r0, [r7, #4]
 80007f0:	000a      	movs	r2, r1
 80007f2:	1cbb      	adds	r3, r7, #2
 80007f4:	801a      	strh	r2, [r3, #0]
    if (duty > TIM3->ARR) duty = TIM3->ARR;
 80007f6:	1cbb      	adds	r3, r7, #2
 80007f8:	881a      	ldrh	r2, [r3, #0]
 80007fa:	4b10      	ldr	r3, [pc, #64]	@ (800083c <_ZN11MotorDriver11setDutyAll_Et+0x54>)
 80007fc:	6adb      	ldr	r3, [r3, #44]	@ 0x2c
 80007fe:	4293      	cmp	r3, r2
 8000800:	419b      	sbcs	r3, r3
 8000802:	425b      	negs	r3, r3
 8000804:	b2db      	uxtb	r3, r3
 8000806:	2b00      	cmp	r3, #0
 8000808:	d003      	beq.n	8000812 <_ZN11MotorDriver11setDutyAll_Et+0x2a>
 800080a:	4b0c      	ldr	r3, [pc, #48]	@ (800083c <_ZN11MotorDriver11setDutyAll_Et+0x54>)
 800080c:	6ada      	ldr	r2, [r3, #44]	@ 0x2c
 800080e:	1cbb      	adds	r3, r7, #2
 8000810:	801a      	strh	r2, [r3, #0]
    TIM3->CCR1 = duty;
 8000812:	4b0a      	ldr	r3, [pc, #40]	@ (800083c <_ZN11MotorDriver11setDutyAll_Et+0x54>)
 8000814:	1cba      	adds	r2, r7, #2
 8000816:	8812      	ldrh	r2, [r2, #0]
 8000818:	635a      	str	r2, [r3, #52]	@ 0x34
    TIM3->CCR2 = duty;
 800081a:	4b08      	ldr	r3, [pc, #32]	@ (800083c <_ZN11MotorDriver11setDutyAll_Et+0x54>)
 800081c:	1cba      	adds	r2, r7, #2
 800081e:	8812      	ldrh	r2, [r2, #0]
 8000820:	639a      	str	r2, [r3, #56]	@ 0x38
    TIM3->CCR3 = duty;
 8000822:	4b06      	ldr	r3, [pc, #24]	@ (800083c <_ZN11MotorDriver11setDutyAll_Et+0x54>)
 8000824:	1cba      	adds	r2, r7, #2
 8000826:	8812      	ldrh	r2, [r2, #0]
 8000828:	63da      	str	r2, [r3, #60]	@ 0x3c
    TIM3->CCR4 = duty;
 800082a:	4b04      	ldr	r3, [pc, #16]	@ (800083c <_ZN11MotorDriver11setDutyAll_Et+0x54>)
 800082c:	1cba      	adds	r2, r7, #2
 800082e:	8812      	ldrh	r2, [r2, #0]
 8000830:	641a      	str	r2, [r3, #64]	@ 0x40
}
 8000832:	46c0      	nop			@ (mov r8, r8)
 8000834:	46bd      	mov	sp, r7
 8000836:	b002      	add	sp, #8
 8000838:	bd80      	pop	{r7, pc}
 800083a:	46c0      	nop			@ (mov r8, r8)
 800083c:	40000400 	.word	0x40000400

08000840 <_ZN11MotorDriver15setSpeedPercentEh>:

void MotorDriver::setSpeedPercent(uint8_t percent)
{
 8000840:	b580      	push	{r7, lr}
 8000842:	b084      	sub	sp, #16
 8000844:	af00      	add	r7, sp, #0
 8000846:	6078      	str	r0, [r7, #4]
 8000848:	000a      	movs	r2, r1
 800084a:	1cfb      	adds	r3, r7, #3
 800084c:	701a      	strb	r2, [r3, #0]
    if (percent > 100) percent = 100;
 800084e:	1cfb      	adds	r3, r7, #3
 8000850:	781b      	ldrb	r3, [r3, #0]
 8000852:	2b64      	cmp	r3, #100	@ 0x64
 8000854:	d902      	bls.n	800085c <_ZN11MotorDriver15setSpeedPercentEh+0x1c>
 8000856:	1cfb      	adds	r3, r7, #3
 8000858:	2264      	movs	r2, #100	@ 0x64
 800085a:	701a      	strb	r2, [r3, #0]

    uint32_t arrp1 = static_cast<uint32_t>(TIM3->ARR) + 1u;
 800085c:	4b0f      	ldr	r3, [pc, #60]	@ (800089c <_ZN11MotorDriver15setSpeedPercentEh+0x5c>)
 800085e:	6adb      	ldr	r3, [r3, #44]	@ 0x2c
 8000860:	3301      	adds	r3, #1
 8000862:	60bb      	str	r3, [r7, #8]
    uint32_t duty = (arrp1 * percent) / 100u;
 8000864:	1cfb      	adds	r3, r7, #3
 8000866:	781b      	ldrb	r3, [r3, #0]
 8000868:	68ba      	ldr	r2, [r7, #8]
 800086a:	4353      	muls	r3, r2
 800086c:	2164      	movs	r1, #100	@ 0x64
 800086e:	0018      	movs	r0, r3
 8000870:	f7ff fc52 	bl	8000118 <__udivsi3>
 8000874:	0003      	movs	r3, r0
 8000876:	60fb      	str	r3, [r7, #12]
    if (duty > 0) duty -= 1u;
 8000878:	68fb      	ldr	r3, [r7, #12]
 800087a:	2b00      	cmp	r3, #0
 800087c:	d002      	beq.n	8000884 <_ZN11MotorDriver15setSpeedPercentEh+0x44>
 800087e:	68fb      	ldr	r3, [r7, #12]
 8000880:	3b01      	subs	r3, #1
 8000882:	60fb      	str	r3, [r7, #12]

    setDutyAll_(static_cast<uint16_t>(duty));
 8000884:	68fb      	ldr	r3, [r7, #12]
 8000886:	b29a      	uxth	r2, r3
 8000888:	687b      	ldr	r3, [r7, #4]
 800088a:	0011      	movs	r1, r2
 800088c:	0018      	movs	r0, r3
 800088e:	f7ff ffab 	bl	80007e8 <_ZN11MotorDriver11setDutyAll_Et>
}
 8000892:	46c0      	nop			@ (mov r8, r8)
 8000894:	46bd      	mov	sp, r7
 8000896:	b004      	add	sp, #16
 8000898:	bd80      	pop	{r7, pc}
 800089a:	46c0      	nop			@ (mov r8, r8)
 800089c:	40000400 	.word	0x40000400

080008a0 <_ZN11MotorDriver4stopEv>:

void MotorDriver::stop()
{
 80008a0:	b580      	push	{r7, lr}
 80008a2:	b082      	sub	sp, #8
 80008a4:	af00      	add	r7, sp, #0
 80008a6:	6078      	str	r0, [r7, #4]
    Gpio::setLow(BoardPins::FL_IN1_PORT, BoardPins::FL_IN1_PIN);
 80008a8:	4b19      	ldr	r3, [pc, #100]	@ (8000910 <_ZN11MotorDriver4stopEv+0x70>)
 80008aa:	2110      	movs	r1, #16
 80008ac:	0018      	movs	r0, r3
 80008ae:	f000 faf6 	bl	8000e9e <_ZN4Gpio6setLowEP12GPIO_TypeDeft>
    Gpio::setLow(BoardPins::FL_IN2_PORT, BoardPins::FL_IN2_PIN);
 80008b2:	4b17      	ldr	r3, [pc, #92]	@ (8000910 <_ZN11MotorDriver4stopEv+0x70>)
 80008b4:	2120      	movs	r1, #32
 80008b6:	0018      	movs	r0, r3
 80008b8:	f000 faf1 	bl	8000e9e <_ZN4Gpio6setLowEP12GPIO_TypeDeft>

    Gpio::setLow(BoardPins::RL_IN1_PORT, BoardPins::RL_IN1_PIN);
 80008bc:	4b14      	ldr	r3, [pc, #80]	@ (8000910 <_ZN11MotorDriver4stopEv+0x70>)
 80008be:	2140      	movs	r1, #64	@ 0x40
 80008c0:	0018      	movs	r0, r3
 80008c2:	f000 faec 	bl	8000e9e <_ZN4Gpio6setLowEP12GPIO_TypeDeft>
    Gpio::setLow(BoardPins::RL_IN2_PORT, BoardPins::RL_IN2_PIN);
 80008c6:	4b12      	ldr	r3, [pc, #72]	@ (8000910 <_ZN11MotorDriver4stopEv+0x70>)
 80008c8:	2180      	movs	r1, #128	@ 0x80
 80008ca:	0018      	movs	r0, r3
 80008cc:	f000 fae7 	bl	8000e9e <_ZN4Gpio6setLowEP12GPIO_TypeDeft>

    Gpio::setLow(BoardPins::FR_IN1_PORT, BoardPins::FR_IN1_PIN);
 80008d0:	2380      	movs	r3, #128	@ 0x80
 80008d2:	005b      	lsls	r3, r3, #1
 80008d4:	4a0e      	ldr	r2, [pc, #56]	@ (8000910 <_ZN11MotorDriver4stopEv+0x70>)
 80008d6:	0019      	movs	r1, r3
 80008d8:	0010      	movs	r0, r2
 80008da:	f000 fae0 	bl	8000e9e <_ZN4Gpio6setLowEP12GPIO_TypeDeft>
    Gpio::setLow(BoardPins::FR_IN2_PORT, BoardPins::FR_IN2_PIN);
 80008de:	2380      	movs	r3, #128	@ 0x80
 80008e0:	009b      	lsls	r3, r3, #2
 80008e2:	4a0b      	ldr	r2, [pc, #44]	@ (8000910 <_ZN11MotorDriver4stopEv+0x70>)
 80008e4:	0019      	movs	r1, r3
 80008e6:	0010      	movs	r0, r2
 80008e8:	f000 fad9 	bl	8000e9e <_ZN4Gpio6setLowEP12GPIO_TypeDeft>

    Gpio::setLow(BoardPins::RR_IN1_PORT, BoardPins::RR_IN1_PIN);
 80008ec:	2380      	movs	r3, #128	@ 0x80
 80008ee:	00db      	lsls	r3, r3, #3
 80008f0:	4a07      	ldr	r2, [pc, #28]	@ (8000910 <_ZN11MotorDriver4stopEv+0x70>)
 80008f2:	0019      	movs	r1, r3
 80008f4:	0010      	movs	r0, r2
 80008f6:	f000 fad2 	bl	8000e9e <_ZN4Gpio6setLowEP12GPIO_TypeDeft>
    Gpio::setLow(BoardPins::RR_IN2_PORT, BoardPins::RR_IN2_PIN);
 80008fa:	2380      	movs	r3, #128	@ 0x80
 80008fc:	011b      	lsls	r3, r3, #4
 80008fe:	4a04      	ldr	r2, [pc, #16]	@ (8000910 <_ZN11MotorDriver4stopEv+0x70>)
 8000900:	0019      	movs	r1, r3
 8000902:	0010      	movs	r0, r2
 8000904:	f000 facb 	bl	8000e9e <_ZN4Gpio6setLowEP12GPIO_TypeDeft>
}
 8000908:	46c0      	nop			@ (mov r8, r8)
 800090a:	46bd      	mov	sp, r7
 800090c:	b002      	add	sp, #8
 800090e:	bd80      	pop	{r7, pc}
 8000910:	48000400 	.word	0x48000400

08000914 <_ZN11MotorDriver14setLeftForwardEv>:

void MotorDriver::setLeftForward()
{
 8000914:	b580      	push	{r7, lr}
 8000916:	b082      	sub	sp, #8
 8000918:	af00      	add	r7, sp, #0
 800091a:	6078      	str	r0, [r7, #4]
    Gpio::setHigh(BoardPins::FL_IN1_PORT, BoardPins::FL_IN1_PIN);
 800091c:	4b0b      	ldr	r3, [pc, #44]	@ (800094c <_ZN11MotorDriver14setLeftForwardEv+0x38>)
 800091e:	2110      	movs	r1, #16
 8000920:	0018      	movs	r0, r3
 8000922:	f000 faad 	bl	8000e80 <_ZN4Gpio7setHighEP12GPIO_TypeDeft>
    Gpio::setLow (BoardPins::FL_IN2_PORT, BoardPins::FL_IN2_PIN);
 8000926:	4b09      	ldr	r3, [pc, #36]	@ (800094c <_ZN11MotorDriver14setLeftForwardEv+0x38>)
 8000928:	2120      	movs	r1, #32
 800092a:	0018      	movs	r0, r3
 800092c:	f000 fab7 	bl	8000e9e <_ZN4Gpio6setLowEP12GPIO_TypeDeft>

    Gpio::setHigh(BoardPins::RL_IN1_PORT, BoardPins::RL_IN1_PIN);
 8000930:	4b06      	ldr	r3, [pc, #24]	@ (800094c <_ZN11MotorDriver14setLeftForwardEv+0x38>)
 8000932:	2140      	movs	r1, #64	@ 0x40
 8000934:	0018      	movs	r0, r3
 8000936:	f000 faa3 	bl	8000e80 <_ZN4Gpio7setHighEP12GPIO_TypeDeft>
    Gpio::setLow (BoardPins::RL_IN2_PORT, BoardPins::RL_IN2_PIN);
 800093a:	4b04      	ldr	r3, [pc, #16]	@ (800094c <_ZN11MotorDriver14setLeftForwardEv+0x38>)
 800093c:	2180      	movs	r1, #128	@ 0x80
 800093e:	0018      	movs	r0, r3
 8000940:	f000 faad 	bl	8000e9e <_ZN4Gpio6setLowEP12GPIO_TypeDeft>
}
 8000944:	46c0      	nop			@ (mov r8, r8)
 8000946:	46bd      	mov	sp, r7
 8000948:	b002      	add	sp, #8
 800094a:	bd80      	pop	{r7, pc}
 800094c:	48000400 	.word	0x48000400

08000950 <_ZN11MotorDriver11setLeftBackEv>:

void MotorDriver::setLeftBack()
{
 8000950:	b580      	push	{r7, lr}
 8000952:	b082      	sub	sp, #8
 8000954:	af00      	add	r7, sp, #0
 8000956:	6078      	str	r0, [r7, #4]
    Gpio::setLow (BoardPins::FL_IN1_PORT, BoardPins::FL_IN1_PIN);
 8000958:	4b0b      	ldr	r3, [pc, #44]	@ (8000988 <_ZN11MotorDriver11setLeftBackEv+0x38>)
 800095a:	2110      	movs	r1, #16
 800095c:	0018      	movs	r0, r3
 800095e:	f000 fa9e 	bl	8000e9e <_ZN4Gpio6setLowEP12GPIO_TypeDeft>
    Gpio::setHigh(BoardPins::FL_IN2_PORT, BoardPins::FL_IN2_PIN);
 8000962:	4b09      	ldr	r3, [pc, #36]	@ (8000988 <_ZN11MotorDriver11setLeftBackEv+0x38>)
 8000964:	2120      	movs	r1, #32
 8000966:	0018      	movs	r0, r3
 8000968:	f000 fa8a 	bl	8000e80 <_ZN4Gpio7setHighEP12GPIO_TypeDeft>

    Gpio::setLow (BoardPins::RL_IN1_PORT, BoardPins::RL_IN1_PIN);
 800096c:	4b06      	ldr	r3, [pc, #24]	@ (8000988 <_ZN11MotorDriver11setLeftBackEv+0x38>)
 800096e:	2140      	movs	r1, #64	@ 0x40
 8000970:	0018      	movs	r0, r3
 8000972:	f000 fa94 	bl	8000e9e <_ZN4Gpio6setLowEP12GPIO_TypeDeft>
    Gpio::setHigh(BoardPins::RL_IN2_PORT, BoardPins::RL_IN2_PIN);
 8000976:	4b04      	ldr	r3, [pc, #16]	@ (8000988 <_ZN11MotorDriver11setLeftBackEv+0x38>)
 8000978:	2180      	movs	r1, #128	@ 0x80
 800097a:	0018      	movs	r0, r3
 800097c:	f000 fa80 	bl	8000e80 <_ZN4Gpio7setHighEP12GPIO_TypeDeft>
}
 8000980:	46c0      	nop			@ (mov r8, r8)
 8000982:	46bd      	mov	sp, r7
 8000984:	b002      	add	sp, #8
 8000986:	bd80      	pop	{r7, pc}
 8000988:	48000400 	.word	0x48000400

0800098c <_ZN11MotorDriver15setRightForwardEv>:

void MotorDriver::setRightForward()
{
 800098c:	b580      	push	{r7, lr}
 800098e:	b082      	sub	sp, #8
 8000990:	af00      	add	r7, sp, #0
 8000992:	6078      	str	r0, [r7, #4]
    Gpio::setHigh(BoardPins::FR_IN1_PORT, BoardPins::FR_IN1_PIN);
 8000994:	2380      	movs	r3, #128	@ 0x80
 8000996:	005b      	lsls	r3, r3, #1
 8000998:	4a0e      	ldr	r2, [pc, #56]	@ (80009d4 <_ZN11MotorDriver15setRightForwardEv+0x48>)
 800099a:	0019      	movs	r1, r3
 800099c:	0010      	movs	r0, r2
 800099e:	f000 fa6f 	bl	8000e80 <_ZN4Gpio7setHighEP12GPIO_TypeDeft>
    Gpio::setLow (BoardPins::FR_IN2_PORT, BoardPins::FR_IN2_PIN);
 80009a2:	2380      	movs	r3, #128	@ 0x80
 80009a4:	009b      	lsls	r3, r3, #2
 80009a6:	4a0b      	ldr	r2, [pc, #44]	@ (80009d4 <_ZN11MotorDriver15setRightForwardEv+0x48>)
 80009a8:	0019      	movs	r1, r3
 80009aa:	0010      	movs	r0, r2
 80009ac:	f000 fa77 	bl	8000e9e <_ZN4Gpio6setLowEP12GPIO_TypeDeft>

    Gpio::setHigh(BoardPins::RR_IN1_PORT, BoardPins::RR_IN1_PIN);
 80009b0:	2380      	movs	r3, #128	@ 0x80
 80009b2:	00db      	lsls	r3, r3, #3
 80009b4:	4a07      	ldr	r2, [pc, #28]	@ (80009d4 <_ZN11MotorDriver15setRightForwardEv+0x48>)
 80009b6:	0019      	movs	r1, r3
 80009b8:	0010      	movs	r0, r2
 80009ba:	f000 fa61 	bl	8000e80 <_ZN4Gpio7setHighEP12GPIO_TypeDeft>
    Gpio::setLow (BoardPins::RR_IN2_PORT, BoardPins::RR_IN2_PIN);
 80009be:	2380      	movs	r3, #128	@ 0x80
 80009c0:	011b      	lsls	r3, r3, #4
 80009c2:	4a04      	ldr	r2, [pc, #16]	@ (80009d4 <_ZN11MotorDriver15setRightForwardEv+0x48>)
 80009c4:	0019      	movs	r1, r3
 80009c6:	0010      	movs	r0, r2
 80009c8:	f000 fa69 	bl	8000e9e <_ZN4Gpio6setLowEP12GPIO_TypeDeft>
}
 80009cc:	46c0      	nop			@ (mov r8, r8)
 80009ce:	46bd      	mov	sp, r7
 80009d0:	b002      	add	sp, #8
 80009d2:	bd80      	pop	{r7, pc}
 80009d4:	48000400 	.word	0x48000400

080009d8 <_ZN11MotorDriver12setRightBackEv>:

void MotorDriver::setRightBack()
{
 80009d8:	b580      	push	{r7, lr}
 80009da:	b082      	sub	sp, #8
 80009dc:	af00      	add	r7, sp, #0
 80009de:	6078      	str	r0, [r7, #4]
    Gpio::setLow (BoardPins::FR_IN1_PORT, BoardPins::FR_IN1_PIN);
 80009e0:	2380      	movs	r3, #128	@ 0x80
 80009e2:	005b      	lsls	r3, r3, #1
 80009e4:	4a0e      	ldr	r2, [pc, #56]	@ (8000a20 <_ZN11MotorDriver12setRightBackEv+0x48>)
 80009e6:	0019      	movs	r1, r3
 80009e8:	0010      	movs	r0, r2
 80009ea:	f000 fa58 	bl	8000e9e <_ZN4Gpio6setLowEP12GPIO_TypeDeft>
    Gpio::setHigh(BoardPins::FR_IN2_PORT, BoardPins::FR_IN2_PIN);
 80009ee:	2380      	movs	r3, #128	@ 0x80
 80009f0:	009b      	lsls	r3, r3, #2
 80009f2:	4a0b      	ldr	r2, [pc, #44]	@ (8000a20 <_ZN11MotorDriver12setRightBackEv+0x48>)
 80009f4:	0019      	movs	r1, r3
 80009f6:	0010      	movs	r0, r2
 80009f8:	f000 fa42 	bl	8000e80 <_ZN4Gpio7setHighEP12GPIO_TypeDeft>

    Gpio::setLow (BoardPins::RR_IN1_PORT, BoardPins::RR_IN1_PIN);
 80009fc:	2380      	movs	r3, #128	@ 0x80
 80009fe:	00db      	lsls	r3, r3, #3
 8000a00:	4a07      	ldr	r2, [pc, #28]	@ (8000a20 <_ZN11MotorDriver12setRightBackEv+0x48>)
 8000a02:	0019      	movs	r1, r3
 8000a04:	0010      	movs	r0, r2
 8000a06:	f000 fa4a 	bl	8000e9e <_ZN4Gpio6setLowEP12GPIO_TypeDeft>
    Gpio::setHigh(BoardPins::RR_IN2_PORT, BoardPins::RR_IN2_PIN);
 8000a0a:	2380      	movs	r3, #128	@ 0x80
 8000a0c:	011b      	lsls	r3, r3, #4
 8000a0e:	4a04      	ldr	r2, [pc, #16]	@ (8000a20 <_ZN11MotorDriver12setRightBackEv+0x48>)
 8000a10:	0019      	movs	r1, r3
 8000a12:	0010      	movs	r0, r2
 8000a14:	f000 fa34 	bl	8000e80 <_ZN4Gpio7setHighEP12GPIO_TypeDeft>
}
 8000a18:	46c0      	nop			@ (mov r8, r8)
 8000a1a:	46bd      	mov	sp, r7
 8000a1c:	b002      	add	sp, #8
 8000a1e:	bd80      	pop	{r7, pc}
 8000a20:	48000400 	.word	0x48000400

08000a24 <_ZN11MotorDriver7forwardEv>:

void MotorDriver::forward()
{
 8000a24:	b580      	push	{r7, lr}
 8000a26:	b082      	sub	sp, #8
 8000a28:	af00      	add	r7, sp, #0
 8000a2a:	6078      	str	r0, [r7, #4]
	setLeftBack();
 8000a2c:	687b      	ldr	r3, [r7, #4]
 8000a2e:	0018      	movs	r0, r3
 8000a30:	f7ff ff8e 	bl	8000950 <_ZN11MotorDriver11setLeftBackEv>
	setRightBack();
 8000a34:	687b      	ldr	r3, [r7, #4]
 8000a36:	0018      	movs	r0, r3
 8000a38:	f7ff ffce 	bl	80009d8 <_ZN11MotorDriver12setRightBackEv>

}
 8000a3c:	46c0      	nop			@ (mov r8, r8)
 8000a3e:	46bd      	mov	sp, r7
 8000a40:	b002      	add	sp, #8
 8000a42:	bd80      	pop	{r7, pc}

08000a44 <_ZN11MotorDriver4backEv>:

void MotorDriver::back()
{
 8000a44:	b580      	push	{r7, lr}
 8000a46:	b082      	sub	sp, #8
 8000a48:	af00      	add	r7, sp, #0
 8000a4a:	6078      	str	r0, [r7, #4]
	setLeftForward();
 8000a4c:	687b      	ldr	r3, [r7, #4]
 8000a4e:	0018      	movs	r0, r3
 8000a50:	f7ff ff60 	bl	8000914 <_ZN11MotorDriver14setLeftForwardEv>
	setRightForward();
 8000a54:	687b      	ldr	r3, [r7, #4]
 8000a56:	0018      	movs	r0, r3
 8000a58:	f7ff ff98 	bl	800098c <_ZN11MotorDriver15setRightForwardEv>
}
 8000a5c:	46c0      	nop			@ (mov r8, r8)
 8000a5e:	46bd      	mov	sp, r7
 8000a60:	b002      	add	sp, #8
 8000a62:	bd80      	pop	{r7, pc}

08000a64 <_ZN11MotorDriver9spinRightEv>:

void MotorDriver::spinRight()
{
 8000a64:	b580      	push	{r7, lr}
 8000a66:	b082      	sub	sp, #8
 8000a68:	af00      	add	r7, sp, #0
 8000a6a:	6078      	str	r0, [r7, #4]
	setLeftForward();
 8000a6c:	687b      	ldr	r3, [r7, #4]
 8000a6e:	0018      	movs	r0, r3
 8000a70:	f7ff ff50 	bl	8000914 <_ZN11MotorDriver14setLeftForwardEv>
	setRightBack();
 8000a74:	687b      	ldr	r3, [r7, #4]
 8000a76:	0018      	movs	r0, r3
 8000a78:	f7ff ffae 	bl	80009d8 <_ZN11MotorDriver12setRightBackEv>

}
 8000a7c:	46c0      	nop			@ (mov r8, r8)
 8000a7e:	46bd      	mov	sp, r7
 8000a80:	b002      	add	sp, #8
 8000a82:	bd80      	pop	{r7, pc}

08000a84 <_ZN11MotorDriver8spinLeftEv>:

void MotorDriver::spinLeft()
{
 8000a84:	b580      	push	{r7, lr}
 8000a86:	b082      	sub	sp, #8
 8000a88:	af00      	add	r7, sp, #0
 8000a8a:	6078      	str	r0, [r7, #4]
	setLeftBack();
 8000a8c:	687b      	ldr	r3, [r7, #4]
 8000a8e:	0018      	movs	r0, r3
 8000a90:	f7ff ff5e 	bl	8000950 <_ZN11MotorDriver11setLeftBackEv>
    setRightForward();
 8000a94:	687b      	ldr	r3, [r7, #4]
 8000a96:	0018      	movs	r0, r3
 8000a98:	f7ff ff78 	bl	800098c <_ZN11MotorDriver15setRightForwardEv>
}
 8000a9c:	46c0      	nop			@ (mov r8, r8)
 8000a9e:	46bd      	mov	sp, r7
 8000aa0:	b002      	add	sp, #8
 8000aa2:	bd80      	pop	{r7, pc}

08000aa4 <_ZN5Clock15init48MHz_HSI48Ev>:
#include "stm32f0xx.h"

namespace Clock
{
    void init48MHz_HSI48()
    {
 8000aa4:	b580      	push	{r7, lr}
 8000aa6:	af00      	add	r7, sp, #0
        RCC->CR2 |= RCC_CR2_HSI48ON;
 8000aa8:	4b22      	ldr	r3, [pc, #136]	@ (8000b34 <_ZN5Clock15init48MHz_HSI48Ev+0x90>)
 8000aaa:	6b5a      	ldr	r2, [r3, #52]	@ 0x34
 8000aac:	4b21      	ldr	r3, [pc, #132]	@ (8000b34 <_ZN5Clock15init48MHz_HSI48Ev+0x90>)
 8000aae:	2180      	movs	r1, #128	@ 0x80
 8000ab0:	0249      	lsls	r1, r1, #9
 8000ab2:	430a      	orrs	r2, r1
 8000ab4:	635a      	str	r2, [r3, #52]	@ 0x34
        while ((RCC->CR2 & RCC_CR2_HSI48RDY) == 0) {}
 8000ab6:	46c0      	nop			@ (mov r8, r8)
 8000ab8:	4b1e      	ldr	r3, [pc, #120]	@ (8000b34 <_ZN5Clock15init48MHz_HSI48Ev+0x90>)
 8000aba:	6b5a      	ldr	r2, [r3, #52]	@ 0x34
 8000abc:	2380      	movs	r3, #128	@ 0x80
 8000abe:	029b      	lsls	r3, r3, #10
 8000ac0:	4013      	ands	r3, r2
 8000ac2:	425a      	negs	r2, r3
 8000ac4:	4153      	adcs	r3, r2
 8000ac6:	b2db      	uxtb	r3, r3
 8000ac8:	2b00      	cmp	r3, #0
 8000aca:	d1f5      	bne.n	8000ab8 <_ZN5Clock15init48MHz_HSI48Ev+0x14>

        FLASH->ACR &= ~(0x7UL);
 8000acc:	4b1a      	ldr	r3, [pc, #104]	@ (8000b38 <_ZN5Clock15init48MHz_HSI48Ev+0x94>)
 8000ace:	681a      	ldr	r2, [r3, #0]
 8000ad0:	4b19      	ldr	r3, [pc, #100]	@ (8000b38 <_ZN5Clock15init48MHz_HSI48Ev+0x94>)
 8000ad2:	2107      	movs	r1, #7
 8000ad4:	438a      	bics	r2, r1
 8000ad6:	601a      	str	r2, [r3, #0]
        FLASH->ACR |= (0x1UL);
 8000ad8:	4b17      	ldr	r3, [pc, #92]	@ (8000b38 <_ZN5Clock15init48MHz_HSI48Ev+0x94>)
 8000ada:	681a      	ldr	r2, [r3, #0]
 8000adc:	4b16      	ldr	r3, [pc, #88]	@ (8000b38 <_ZN5Clock15init48MHz_HSI48Ev+0x94>)
 8000ade:	2101      	movs	r1, #1
 8000ae0:	430a      	orrs	r2, r1
 8000ae2:	601a      	str	r2, [r3, #0]

        RCC->CFGR &= ~(RCC_CFGR_HPRE | RCC_CFGR_PPRE);
 8000ae4:	4b13      	ldr	r3, [pc, #76]	@ (8000b34 <_ZN5Clock15init48MHz_HSI48Ev+0x90>)
 8000ae6:	685a      	ldr	r2, [r3, #4]
 8000ae8:	4b12      	ldr	r3, [pc, #72]	@ (8000b34 <_ZN5Clock15init48MHz_HSI48Ev+0x90>)
 8000aea:	4914      	ldr	r1, [pc, #80]	@ (8000b3c <_ZN5Clock15init48MHz_HSI48Ev+0x98>)
 8000aec:	400a      	ands	r2, r1
 8000aee:	605a      	str	r2, [r3, #4]

        RCC->CFGR &= ~RCC_CFGR_SW;
 8000af0:	4b10      	ldr	r3, [pc, #64]	@ (8000b34 <_ZN5Clock15init48MHz_HSI48Ev+0x90>)
 8000af2:	685a      	ldr	r2, [r3, #4]
 8000af4:	4b0f      	ldr	r3, [pc, #60]	@ (8000b34 <_ZN5Clock15init48MHz_HSI48Ev+0x90>)
 8000af6:	2103      	movs	r1, #3
 8000af8:	438a      	bics	r2, r1
 8000afa:	605a      	str	r2, [r3, #4]
        RCC->CFGR |= RCC_CFGR_SW_HSI48;
 8000afc:	4b0d      	ldr	r3, [pc, #52]	@ (8000b34 <_ZN5Clock15init48MHz_HSI48Ev+0x90>)
 8000afe:	685a      	ldr	r2, [r3, #4]
 8000b00:	4b0c      	ldr	r3, [pc, #48]	@ (8000b34 <_ZN5Clock15init48MHz_HSI48Ev+0x90>)
 8000b02:	2103      	movs	r1, #3
 8000b04:	430a      	orrs	r2, r1
 8000b06:	605a      	str	r2, [r3, #4]

        while ((RCC->CFGR & RCC_CFGR_SWS) != RCC_CFGR_SWS_HSI48) {}
 8000b08:	46c0      	nop			@ (mov r8, r8)
 8000b0a:	4b0a      	ldr	r3, [pc, #40]	@ (8000b34 <_ZN5Clock15init48MHz_HSI48Ev+0x90>)
 8000b0c:	685b      	ldr	r3, [r3, #4]
 8000b0e:	220c      	movs	r2, #12
 8000b10:	4013      	ands	r3, r2
 8000b12:	3b0c      	subs	r3, #12
 8000b14:	1e5a      	subs	r2, r3, #1
 8000b16:	4193      	sbcs	r3, r2
 8000b18:	b2db      	uxtb	r3, r3
 8000b1a:	2b00      	cmp	r3, #0
 8000b1c:	d1f5      	bne.n	8000b0a <_ZN5Clock15init48MHz_HSI48Ev+0x66>
  \details Acts as a special kind of Data Memory Barrier.
           It completes when all explicit memory accesses before this instruction complete.
 */
__STATIC_FORCEINLINE void __DSB(void)
{
  __ASM volatile ("dsb 0xF":::"memory");
 8000b1e:	f3bf 8f4f 	dsb	sy
}
 8000b22:	46c0      	nop			@ (mov r8, r8)
  __ASM volatile ("isb 0xF":::"memory");
 8000b24:	f3bf 8f6f 	isb	sy
}
 8000b28:	46c0      	nop			@ (mov r8, r8)

        __DSB();
        __ISB();

        SystemCoreClockUpdate();
 8000b2a:	f001 f94b 	bl	8001dc4 <SystemCoreClockUpdate>
    }
 8000b2e:	46c0      	nop			@ (mov r8, r8)
 8000b30:	46bd      	mov	sp, r7
 8000b32:	bd80      	pop	{r7, pc}
 8000b34:	40021000 	.word	0x40021000
 8000b38:	40022000 	.word	0x40022000
 8000b3c:	fffff80f 	.word	0xfffff80f

08000b40 <_ZN5Clock15enableGpioClockEP12GPIO_TypeDef>:

    void enableGpioClock(GPIO_TypeDef* port)
    {
 8000b40:	b580      	push	{r7, lr}
 8000b42:	b082      	sub	sp, #8
 8000b44:	af00      	add	r7, sp, #0
 8000b46:	6078      	str	r0, [r7, #4]
        if (port == GPIOA)      RCC->AHBENR |= RCC_AHBENR_GPIOAEN;
 8000b48:	687a      	ldr	r2, [r7, #4]
 8000b4a:	2390      	movs	r3, #144	@ 0x90
 8000b4c:	05db      	lsls	r3, r3, #23
 8000b4e:	429a      	cmp	r2, r3
 8000b50:	d107      	bne.n	8000b62 <_ZN5Clock15enableGpioClockEP12GPIO_TypeDef+0x22>
 8000b52:	4b1d      	ldr	r3, [pc, #116]	@ (8000bc8 <_ZN5Clock15enableGpioClockEP12GPIO_TypeDef+0x88>)
 8000b54:	695a      	ldr	r2, [r3, #20]
 8000b56:	4b1c      	ldr	r3, [pc, #112]	@ (8000bc8 <_ZN5Clock15enableGpioClockEP12GPIO_TypeDef+0x88>)
 8000b58:	2180      	movs	r1, #128	@ 0x80
 8000b5a:	0289      	lsls	r1, r1, #10
 8000b5c:	430a      	orrs	r2, r1
 8000b5e:	615a      	str	r2, [r3, #20]
        else if (port == GPIOB) RCC->AHBENR |= RCC_AHBENR_GPIOBEN;
        else if (port == GPIOC) RCC->AHBENR |= RCC_AHBENR_GPIOCEN;
        else if (port == GPIOD) RCC->AHBENR |= RCC_AHBENR_GPIODEN;
        else if (port == GPIOF) RCC->AHBENR |= RCC_AHBENR_GPIOFEN;
    }
 8000b60:	e02e      	b.n	8000bc0 <_ZN5Clock15enableGpioClockEP12GPIO_TypeDef+0x80>
        else if (port == GPIOB) RCC->AHBENR |= RCC_AHBENR_GPIOBEN;
 8000b62:	687b      	ldr	r3, [r7, #4]
 8000b64:	4a19      	ldr	r2, [pc, #100]	@ (8000bcc <_ZN5Clock15enableGpioClockEP12GPIO_TypeDef+0x8c>)
 8000b66:	4293      	cmp	r3, r2
 8000b68:	d107      	bne.n	8000b7a <_ZN5Clock15enableGpioClockEP12GPIO_TypeDef+0x3a>
 8000b6a:	4b17      	ldr	r3, [pc, #92]	@ (8000bc8 <_ZN5Clock15enableGpioClockEP12GPIO_TypeDef+0x88>)
 8000b6c:	695a      	ldr	r2, [r3, #20]
 8000b6e:	4b16      	ldr	r3, [pc, #88]	@ (8000bc8 <_ZN5Clock15enableGpioClockEP12GPIO_TypeDef+0x88>)
 8000b70:	2180      	movs	r1, #128	@ 0x80
 8000b72:	02c9      	lsls	r1, r1, #11
 8000b74:	430a      	orrs	r2, r1
 8000b76:	615a      	str	r2, [r3, #20]
    }
 8000b78:	e022      	b.n	8000bc0 <_ZN5Clock15enableGpioClockEP12GPIO_TypeDef+0x80>
        else if (port == GPIOC) RCC->AHBENR |= RCC_AHBENR_GPIOCEN;
 8000b7a:	687b      	ldr	r3, [r7, #4]
 8000b7c:	4a14      	ldr	r2, [pc, #80]	@ (8000bd0 <_ZN5Clock15enableGpioClockEP12GPIO_TypeDef+0x90>)
 8000b7e:	4293      	cmp	r3, r2
 8000b80:	d107      	bne.n	8000b92 <_ZN5Clock15enableGpioClockEP12GPIO_TypeDef+0x52>
 8000b82:	4b11      	ldr	r3, [pc, #68]	@ (8000bc8 <_ZN5Clock15enableGpioClockEP12GPIO_TypeDef+0x88>)
 8000b84:	695a      	ldr	r2, [r3, #20]
 8000b86:	4b10      	ldr	r3, [pc, #64]	@ (8000bc8 <_ZN5Clock15enableGpioClockEP12GPIO_TypeDef+0x88>)
 8000b88:	2180      	movs	r1, #128	@ 0x80
 8000b8a:	0309      	lsls	r1, r1, #12
 8000b8c:	430a      	orrs	r2, r1
 8000b8e:	615a      	str	r2, [r3, #20]
    }
 8000b90:	e016      	b.n	8000bc0 <_ZN5Clock15enableGpioClockEP12GPIO_TypeDef+0x80>
        else if (port == GPIOD) RCC->AHBENR |= RCC_AHBENR_GPIODEN;
 8000b92:	687b      	ldr	r3, [r7, #4]
 8000b94:	4a0f      	ldr	r2, [pc, #60]	@ (8000bd4 <_ZN5Clock15enableGpioClockEP12GPIO_TypeDef+0x94>)
 8000b96:	4293      	cmp	r3, r2
 8000b98:	d107      	bne.n	8000baa <_ZN5Clock15enableGpioClockEP12GPIO_TypeDef+0x6a>
 8000b9a:	4b0b      	ldr	r3, [pc, #44]	@ (8000bc8 <_ZN5Clock15enableGpioClockEP12GPIO_TypeDef+0x88>)
 8000b9c:	695a      	ldr	r2, [r3, #20]
 8000b9e:	4b0a      	ldr	r3, [pc, #40]	@ (8000bc8 <_ZN5Clock15enableGpioClockEP12GPIO_TypeDef+0x88>)
 8000ba0:	2180      	movs	r1, #128	@ 0x80
 8000ba2:	0349      	lsls	r1, r1, #13
 8000ba4:	430a      	orrs	r2, r1
 8000ba6:	615a      	str	r2, [r3, #20]
    }
 8000ba8:	e00a      	b.n	8000bc0 <_ZN5Clock15enableGpioClockEP12GPIO_TypeDef+0x80>
        else if (port == GPIOF) RCC->AHBENR |= RCC_AHBENR_GPIOFEN;
 8000baa:	687b      	ldr	r3, [r7, #4]
 8000bac:	4a0a      	ldr	r2, [pc, #40]	@ (8000bd8 <_ZN5Clock15enableGpioClockEP12GPIO_TypeDef+0x98>)
 8000bae:	4293      	cmp	r3, r2
 8000bb0:	d106      	bne.n	8000bc0 <_ZN5Clock15enableGpioClockEP12GPIO_TypeDef+0x80>
 8000bb2:	4b05      	ldr	r3, [pc, #20]	@ (8000bc8 <_ZN5Clock15enableGpioClockEP12GPIO_TypeDef+0x88>)
 8000bb4:	695a      	ldr	r2, [r3, #20]
 8000bb6:	4b04      	ldr	r3, [pc, #16]	@ (8000bc8 <_ZN5Clock15enableGpioClockEP12GPIO_TypeDef+0x88>)
 8000bb8:	2180      	movs	r1, #128	@ 0x80
 8000bba:	03c9      	lsls	r1, r1, #15
 8000bbc:	430a      	orrs	r2, r1
 8000bbe:	615a      	str	r2, [r3, #20]
    }
 8000bc0:	46c0      	nop			@ (mov r8, r8)
 8000bc2:	46bd      	mov	sp, r7
 8000bc4:	b002      	add	sp, #8
 8000bc6:	bd80      	pop	{r7, pc}
 8000bc8:	40021000 	.word	0x40021000
 8000bcc:	48000400 	.word	0x48000400
 8000bd0:	48000800 	.word	0x48000800
 8000bd4:	48000c00 	.word	0x48000c00
 8000bd8:	48001400 	.word	0x48001400

08000bdc <_ZN4Gpio15configureOutputEP12GPIO_TypeDeft>:
#include "hw/Gpio.hpp"

namespace Gpio
{
    void configureOutput(GPIO_TypeDef* const port, uint16_t pinMask)
    {
 8000bdc:	b580      	push	{r7, lr}
 8000bde:	b084      	sub	sp, #16
 8000be0:	af00      	add	r7, sp, #0
 8000be2:	6078      	str	r0, [r7, #4]
 8000be4:	000a      	movs	r2, r1
 8000be6:	1cbb      	adds	r3, r7, #2
 8000be8:	801a      	strh	r2, [r3, #0]
        for (uint8_t pin = 0; pin < 16; ++pin)
 8000bea:	230f      	movs	r3, #15
 8000bec:	18fb      	adds	r3, r7, r3
 8000bee:	2200      	movs	r2, #0
 8000bf0:	701a      	strb	r2, [r3, #0]
 8000bf2:	e04e      	b.n	8000c92 <_ZN4Gpio15configureOutputEP12GPIO_TypeDeft+0xb6>
        {
            if (pinMask & (1u << pin))
 8000bf4:	1cbb      	adds	r3, r7, #2
 8000bf6:	881a      	ldrh	r2, [r3, #0]
 8000bf8:	200f      	movs	r0, #15
 8000bfa:	183b      	adds	r3, r7, r0
 8000bfc:	781b      	ldrb	r3, [r3, #0]
 8000bfe:	40da      	lsrs	r2, r3
 8000c00:	0013      	movs	r3, r2
 8000c02:	2201      	movs	r2, #1
 8000c04:	4013      	ands	r3, r2
 8000c06:	d03e      	beq.n	8000c86 <_ZN4Gpio15configureOutputEP12GPIO_TypeDeft+0xaa>
            {
                uint32_t shift = 2u * pin;
 8000c08:	183b      	adds	r3, r7, r0
 8000c0a:	781b      	ldrb	r3, [r3, #0]
 8000c0c:	005b      	lsls	r3, r3, #1
 8000c0e:	60bb      	str	r3, [r7, #8]

                port->MODER   &= ~(0x3u << shift);
 8000c10:	687b      	ldr	r3, [r7, #4]
 8000c12:	681b      	ldr	r3, [r3, #0]
 8000c14:	2103      	movs	r1, #3
 8000c16:	68ba      	ldr	r2, [r7, #8]
 8000c18:	4091      	lsls	r1, r2
 8000c1a:	000a      	movs	r2, r1
 8000c1c:	43d2      	mvns	r2, r2
 8000c1e:	401a      	ands	r2, r3
 8000c20:	687b      	ldr	r3, [r7, #4]
 8000c22:	601a      	str	r2, [r3, #0]
                port->MODER   |=  (0x1u << shift);
 8000c24:	687b      	ldr	r3, [r7, #4]
 8000c26:	681a      	ldr	r2, [r3, #0]
 8000c28:	2101      	movs	r1, #1
 8000c2a:	68bb      	ldr	r3, [r7, #8]
 8000c2c:	4099      	lsls	r1, r3
 8000c2e:	000b      	movs	r3, r1
 8000c30:	431a      	orrs	r2, r3
 8000c32:	687b      	ldr	r3, [r7, #4]
 8000c34:	601a      	str	r2, [r3, #0]

                port->OTYPER  &= ~(1u << pin);
 8000c36:	687b      	ldr	r3, [r7, #4]
 8000c38:	685b      	ldr	r3, [r3, #4]
 8000c3a:	183a      	adds	r2, r7, r0
 8000c3c:	7812      	ldrb	r2, [r2, #0]
 8000c3e:	2101      	movs	r1, #1
 8000c40:	4091      	lsls	r1, r2
 8000c42:	000a      	movs	r2, r1
 8000c44:	43d2      	mvns	r2, r2
 8000c46:	401a      	ands	r2, r3
 8000c48:	687b      	ldr	r3, [r7, #4]
 8000c4a:	605a      	str	r2, [r3, #4]

                port->OSPEEDR &= ~(0x3u << shift);
 8000c4c:	687b      	ldr	r3, [r7, #4]
 8000c4e:	689b      	ldr	r3, [r3, #8]
 8000c50:	2103      	movs	r1, #3
 8000c52:	68ba      	ldr	r2, [r7, #8]
 8000c54:	4091      	lsls	r1, r2
 8000c56:	000a      	movs	r2, r1
 8000c58:	43d2      	mvns	r2, r2
 8000c5a:	401a      	ands	r2, r3
 8000c5c:	687b      	ldr	r3, [r7, #4]
 8000c5e:	609a      	str	r2, [r3, #8]
                port->OSPEEDR |=  (0x3u << shift);
 8000c60:	687b      	ldr	r3, [r7, #4]
 8000c62:	689a      	ldr	r2, [r3, #8]
 8000c64:	2103      	movs	r1, #3
 8000c66:	68bb      	ldr	r3, [r7, #8]
 8000c68:	4099      	lsls	r1, r3
 8000c6a:	000b      	movs	r3, r1
 8000c6c:	431a      	orrs	r2, r3
 8000c6e:	687b      	ldr	r3, [r7, #4]
 8000c70:	609a      	str	r2, [r3, #8]

                port->PUPDR   &= ~(0x3u << shift);
 8000c72:	687b      	ldr	r3, [r7, #4]
 8000c74:	68db      	ldr	r3, [r3, #12]
 8000c76:	2103      	movs	r1, #3
 8000c78:	68ba      	ldr	r2, [r7, #8]
 8000c7a:	4091      	lsls	r1, r2
 8000c7c:	000a      	movs	r2, r1
 8000c7e:	43d2      	mvns	r2, r2
 8000c80:	401a      	ands	r2, r3
 8000c82:	687b      	ldr	r3, [r7, #4]
 8000c84:	60da      	str	r2, [r3, #12]
        for (uint8_t pin = 0; pin < 16; ++pin)
 8000c86:	220f      	movs	r2, #15
 8000c88:	18bb      	adds	r3, r7, r2
 8000c8a:	18ba      	adds	r2, r7, r2
 8000c8c:	7812      	ldrb	r2, [r2, #0]
 8000c8e:	3201      	adds	r2, #1
 8000c90:	701a      	strb	r2, [r3, #0]
 8000c92:	230f      	movs	r3, #15
 8000c94:	18fb      	adds	r3, r7, r3
 8000c96:	781b      	ldrb	r3, [r3, #0]
 8000c98:	2b0f      	cmp	r3, #15
 8000c9a:	d9ab      	bls.n	8000bf4 <_ZN4Gpio15configureOutputEP12GPIO_TypeDeft+0x18>
            }
        }
    }
 8000c9c:	46c0      	nop			@ (mov r8, r8)
 8000c9e:	46c0      	nop			@ (mov r8, r8)
 8000ca0:	46bd      	mov	sp, r7
 8000ca2:	b004      	add	sp, #16
 8000ca4:	bd80      	pop	{r7, pc}

08000ca6 <_ZN4Gpio14configureInputEP12GPIO_TypeDeftNS_4PullE>:

    void configureInput(GPIO_TypeDef* const port, uint16_t pinMask, Pull pull)
    {
 8000ca6:	b580      	push	{r7, lr}
 8000ca8:	b084      	sub	sp, #16
 8000caa:	af00      	add	r7, sp, #0
 8000cac:	6078      	str	r0, [r7, #4]
 8000cae:	0008      	movs	r0, r1
 8000cb0:	0011      	movs	r1, r2
 8000cb2:	1cbb      	adds	r3, r7, #2
 8000cb4:	1c02      	adds	r2, r0, #0
 8000cb6:	801a      	strh	r2, [r3, #0]
 8000cb8:	1c7b      	adds	r3, r7, #1
 8000cba:	1c0a      	adds	r2, r1, #0
 8000cbc:	701a      	strb	r2, [r3, #0]
        for (uint8_t pin = 0; pin < 16; ++pin)
 8000cbe:	230f      	movs	r3, #15
 8000cc0:	18fb      	adds	r3, r7, r3
 8000cc2:	2200      	movs	r2, #0
 8000cc4:	701a      	strb	r2, [r3, #0]
 8000cc6:	e042      	b.n	8000d4e <_ZN4Gpio14configureInputEP12GPIO_TypeDeftNS_4PullE+0xa8>
        {
            if (pinMask & (1u << pin))
 8000cc8:	1cbb      	adds	r3, r7, #2
 8000cca:	881a      	ldrh	r2, [r3, #0]
 8000ccc:	210f      	movs	r1, #15
 8000cce:	187b      	adds	r3, r7, r1
 8000cd0:	781b      	ldrb	r3, [r3, #0]
 8000cd2:	40da      	lsrs	r2, r3
 8000cd4:	0013      	movs	r3, r2
 8000cd6:	2201      	movs	r2, #1
 8000cd8:	4013      	ands	r3, r2
 8000cda:	d032      	beq.n	8000d42 <_ZN4Gpio14configureInputEP12GPIO_TypeDeftNS_4PullE+0x9c>
            {
                uint32_t shift = 2u * pin;
 8000cdc:	187b      	adds	r3, r7, r1
 8000cde:	781b      	ldrb	r3, [r3, #0]
 8000ce0:	005b      	lsls	r3, r3, #1
 8000ce2:	60bb      	str	r3, [r7, #8]

                port->MODER &= ~(0x3u << shift);
 8000ce4:	687b      	ldr	r3, [r7, #4]
 8000ce6:	681b      	ldr	r3, [r3, #0]
 8000ce8:	2103      	movs	r1, #3
 8000cea:	68ba      	ldr	r2, [r7, #8]
 8000cec:	4091      	lsls	r1, r2
 8000cee:	000a      	movs	r2, r1
 8000cf0:	43d2      	mvns	r2, r2
 8000cf2:	401a      	ands	r2, r3
 8000cf4:	687b      	ldr	r3, [r7, #4]
 8000cf6:	601a      	str	r2, [r3, #0]
                port->PUPDR &= ~(0x3u << shift);
 8000cf8:	687b      	ldr	r3, [r7, #4]
 8000cfa:	68db      	ldr	r3, [r3, #12]
 8000cfc:	2103      	movs	r1, #3
 8000cfe:	68ba      	ldr	r2, [r7, #8]
 8000d00:	4091      	lsls	r1, r2
 8000d02:	000a      	movs	r2, r1
 8000d04:	43d2      	mvns	r2, r2
 8000d06:	401a      	ands	r2, r3
 8000d08:	687b      	ldr	r3, [r7, #4]
 8000d0a:	60da      	str	r2, [r3, #12]

                if (pull == Pull::Up)
 8000d0c:	1c7b      	adds	r3, r7, #1
 8000d0e:	781b      	ldrb	r3, [r3, #0]
 8000d10:	2b01      	cmp	r3, #1
 8000d12:	d109      	bne.n	8000d28 <_ZN4Gpio14configureInputEP12GPIO_TypeDeftNS_4PullE+0x82>
                    port->PUPDR |= (0x1u << shift);
 8000d14:	687b      	ldr	r3, [r7, #4]
 8000d16:	68da      	ldr	r2, [r3, #12]
 8000d18:	2101      	movs	r1, #1
 8000d1a:	68bb      	ldr	r3, [r7, #8]
 8000d1c:	4099      	lsls	r1, r3
 8000d1e:	000b      	movs	r3, r1
 8000d20:	431a      	orrs	r2, r3
 8000d22:	687b      	ldr	r3, [r7, #4]
 8000d24:	60da      	str	r2, [r3, #12]
 8000d26:	e00c      	b.n	8000d42 <_ZN4Gpio14configureInputEP12GPIO_TypeDeftNS_4PullE+0x9c>
                else if (pull == Pull::Down)
 8000d28:	1c7b      	adds	r3, r7, #1
 8000d2a:	781b      	ldrb	r3, [r3, #0]
 8000d2c:	2b02      	cmp	r3, #2
 8000d2e:	d108      	bne.n	8000d42 <_ZN4Gpio14configureInputEP12GPIO_TypeDeftNS_4PullE+0x9c>
                    port->PUPDR |= (0x2u << shift);
 8000d30:	687b      	ldr	r3, [r7, #4]
 8000d32:	68da      	ldr	r2, [r3, #12]
 8000d34:	2102      	movs	r1, #2
 8000d36:	68bb      	ldr	r3, [r7, #8]
 8000d38:	4099      	lsls	r1, r3
 8000d3a:	000b      	movs	r3, r1
 8000d3c:	431a      	orrs	r2, r3
 8000d3e:	687b      	ldr	r3, [r7, #4]
 8000d40:	60da      	str	r2, [r3, #12]
        for (uint8_t pin = 0; pin < 16; ++pin)
 8000d42:	220f      	movs	r2, #15
 8000d44:	18bb      	adds	r3, r7, r2
 8000d46:	18ba      	adds	r2, r7, r2
 8000d48:	7812      	ldrb	r2, [r2, #0]
 8000d4a:	3201      	adds	r2, #1
 8000d4c:	701a      	strb	r2, [r3, #0]
 8000d4e:	230f      	movs	r3, #15
 8000d50:	18fb      	adds	r3, r7, r3
 8000d52:	781b      	ldrb	r3, [r3, #0]
 8000d54:	2b0f      	cmp	r3, #15
 8000d56:	d9b7      	bls.n	8000cc8 <_ZN4Gpio14configureInputEP12GPIO_TypeDeftNS_4PullE+0x22>
            }
        }
    }
 8000d58:	46c0      	nop			@ (mov r8, r8)
 8000d5a:	46c0      	nop			@ (mov r8, r8)
 8000d5c:	46bd      	mov	sp, r7
 8000d5e:	b004      	add	sp, #16
 8000d60:	bd80      	pop	{r7, pc}

08000d62 <_ZN4Gpio20configureAltFunctionEP12GPIO_TypeDefth>:

    void configureAltFunction(GPIO_TypeDef* const port, uint16_t pinMask, uint8_t af)
    {
 8000d62:	b580      	push	{r7, lr}
 8000d64:	b086      	sub	sp, #24
 8000d66:	af00      	add	r7, sp, #0
 8000d68:	6078      	str	r0, [r7, #4]
 8000d6a:	0008      	movs	r0, r1
 8000d6c:	0011      	movs	r1, r2
 8000d6e:	1cbb      	adds	r3, r7, #2
 8000d70:	1c02      	adds	r2, r0, #0
 8000d72:	801a      	strh	r2, [r3, #0]
 8000d74:	1c7b      	adds	r3, r7, #1
 8000d76:	1c0a      	adds	r2, r1, #0
 8000d78:	701a      	strb	r2, [r3, #0]
        for (uint8_t pin = 0; pin < 16; ++pin)
 8000d7a:	2317      	movs	r3, #23
 8000d7c:	18fb      	adds	r3, r7, r3
 8000d7e:	2200      	movs	r2, #0
 8000d80:	701a      	strb	r2, [r3, #0]
 8000d82:	e073      	b.n	8000e6c <_ZN4Gpio20configureAltFunctionEP12GPIO_TypeDefth+0x10a>
        {
            if (pinMask & (1u << pin))
 8000d84:	1cbb      	adds	r3, r7, #2
 8000d86:	881a      	ldrh	r2, [r3, #0]
 8000d88:	2017      	movs	r0, #23
 8000d8a:	183b      	adds	r3, r7, r0
 8000d8c:	781b      	ldrb	r3, [r3, #0]
 8000d8e:	40da      	lsrs	r2, r3
 8000d90:	0013      	movs	r3, r2
 8000d92:	2201      	movs	r2, #1
 8000d94:	4013      	ands	r3, r2
 8000d96:	d063      	beq.n	8000e60 <_ZN4Gpio20configureAltFunctionEP12GPIO_TypeDefth+0xfe>
            {
                uint32_t shift = 2u * pin;
 8000d98:	183b      	adds	r3, r7, r0
 8000d9a:	781b      	ldrb	r3, [r3, #0]
 8000d9c:	005b      	lsls	r3, r3, #1
 8000d9e:	613b      	str	r3, [r7, #16]

                port->MODER &= ~(0x3u << shift);
 8000da0:	687b      	ldr	r3, [r7, #4]
 8000da2:	681b      	ldr	r3, [r3, #0]
 8000da4:	2103      	movs	r1, #3
 8000da6:	693a      	ldr	r2, [r7, #16]
 8000da8:	4091      	lsls	r1, r2
 8000daa:	000a      	movs	r2, r1
 8000dac:	43d2      	mvns	r2, r2
 8000dae:	401a      	ands	r2, r3
 8000db0:	687b      	ldr	r3, [r7, #4]
 8000db2:	601a      	str	r2, [r3, #0]
                port->MODER |=  (0x2u << shift);
 8000db4:	687b      	ldr	r3, [r7, #4]
 8000db6:	681a      	ldr	r2, [r3, #0]
 8000db8:	2102      	movs	r1, #2
 8000dba:	693b      	ldr	r3, [r7, #16]
 8000dbc:	4099      	lsls	r1, r3
 8000dbe:	000b      	movs	r3, r1
 8000dc0:	431a      	orrs	r2, r3
 8000dc2:	687b      	ldr	r3, [r7, #4]
 8000dc4:	601a      	str	r2, [r3, #0]

                volatile uint32_t* afr =
                    (pin < 8) ? &port->AFR[0] : &port->AFR[1];
 8000dc6:	183b      	adds	r3, r7, r0
 8000dc8:	781b      	ldrb	r3, [r3, #0]
 8000dca:	2b07      	cmp	r3, #7
 8000dcc:	d802      	bhi.n	8000dd4 <_ZN4Gpio20configureAltFunctionEP12GPIO_TypeDefth+0x72>
 8000dce:	687b      	ldr	r3, [r7, #4]
 8000dd0:	3320      	adds	r3, #32
 8000dd2:	e001      	b.n	8000dd8 <_ZN4Gpio20configureAltFunctionEP12GPIO_TypeDefth+0x76>
 8000dd4:	687b      	ldr	r3, [r7, #4]
 8000dd6:	3324      	adds	r3, #36	@ 0x24
                volatile uint32_t* afr =
 8000dd8:	60fb      	str	r3, [r7, #12]

                uint32_t afrShift = 4u * (pin & 0x7u);
 8000dda:	2017      	movs	r0, #23
 8000ddc:	183b      	adds	r3, r7, r0
 8000dde:	781b      	ldrb	r3, [r3, #0]
 8000de0:	2207      	movs	r2, #7
 8000de2:	4013      	ands	r3, r2
 8000de4:	009b      	lsls	r3, r3, #2
 8000de6:	60bb      	str	r3, [r7, #8]
                *afr &= ~(0xFu << afrShift);
 8000de8:	68fb      	ldr	r3, [r7, #12]
 8000dea:	681b      	ldr	r3, [r3, #0]
 8000dec:	210f      	movs	r1, #15
 8000dee:	68ba      	ldr	r2, [r7, #8]
 8000df0:	4091      	lsls	r1, r2
 8000df2:	000a      	movs	r2, r1
 8000df4:	43d2      	mvns	r2, r2
 8000df6:	401a      	ands	r2, r3
 8000df8:	68fb      	ldr	r3, [r7, #12]
 8000dfa:	601a      	str	r2, [r3, #0]
                *afr |=  (static_cast<uint32_t>(af) << afrShift);
 8000dfc:	68fb      	ldr	r3, [r7, #12]
 8000dfe:	681a      	ldr	r2, [r3, #0]
 8000e00:	1c7b      	adds	r3, r7, #1
 8000e02:	7819      	ldrb	r1, [r3, #0]
 8000e04:	68bb      	ldr	r3, [r7, #8]
 8000e06:	4099      	lsls	r1, r3
 8000e08:	000b      	movs	r3, r1
 8000e0a:	431a      	orrs	r2, r3
 8000e0c:	68fb      	ldr	r3, [r7, #12]
 8000e0e:	601a      	str	r2, [r3, #0]

                port->OTYPER  &= ~(1u << pin);
 8000e10:	687b      	ldr	r3, [r7, #4]
 8000e12:	685b      	ldr	r3, [r3, #4]
 8000e14:	183a      	adds	r2, r7, r0
 8000e16:	7812      	ldrb	r2, [r2, #0]
 8000e18:	2101      	movs	r1, #1
 8000e1a:	4091      	lsls	r1, r2
 8000e1c:	000a      	movs	r2, r1
 8000e1e:	43d2      	mvns	r2, r2
 8000e20:	401a      	ands	r2, r3
 8000e22:	687b      	ldr	r3, [r7, #4]
 8000e24:	605a      	str	r2, [r3, #4]

                port->OSPEEDR &= ~(0x3u << shift);
 8000e26:	687b      	ldr	r3, [r7, #4]
 8000e28:	689b      	ldr	r3, [r3, #8]
 8000e2a:	2103      	movs	r1, #3
 8000e2c:	693a      	ldr	r2, [r7, #16]
 8000e2e:	4091      	lsls	r1, r2
 8000e30:	000a      	movs	r2, r1
 8000e32:	43d2      	mvns	r2, r2
 8000e34:	401a      	ands	r2, r3
 8000e36:	687b      	ldr	r3, [r7, #4]
 8000e38:	609a      	str	r2, [r3, #8]
                port->OSPEEDR |=  (0x3u << shift);
 8000e3a:	687b      	ldr	r3, [r7, #4]
 8000e3c:	689a      	ldr	r2, [r3, #8]
 8000e3e:	2103      	movs	r1, #3
 8000e40:	693b      	ldr	r3, [r7, #16]
 8000e42:	4099      	lsls	r1, r3
 8000e44:	000b      	movs	r3, r1
 8000e46:	431a      	orrs	r2, r3
 8000e48:	687b      	ldr	r3, [r7, #4]
 8000e4a:	609a      	str	r2, [r3, #8]

                port->PUPDR   &= ~(0x3u << shift);
 8000e4c:	687b      	ldr	r3, [r7, #4]
 8000e4e:	68db      	ldr	r3, [r3, #12]
 8000e50:	2103      	movs	r1, #3
 8000e52:	693a      	ldr	r2, [r7, #16]
 8000e54:	4091      	lsls	r1, r2
 8000e56:	000a      	movs	r2, r1
 8000e58:	43d2      	mvns	r2, r2
 8000e5a:	401a      	ands	r2, r3
 8000e5c:	687b      	ldr	r3, [r7, #4]
 8000e5e:	60da      	str	r2, [r3, #12]
        for (uint8_t pin = 0; pin < 16; ++pin)
 8000e60:	2217      	movs	r2, #23
 8000e62:	18bb      	adds	r3, r7, r2
 8000e64:	18ba      	adds	r2, r7, r2
 8000e66:	7812      	ldrb	r2, [r2, #0]
 8000e68:	3201      	adds	r2, #1
 8000e6a:	701a      	strb	r2, [r3, #0]
 8000e6c:	2317      	movs	r3, #23
 8000e6e:	18fb      	adds	r3, r7, r3
 8000e70:	781b      	ldrb	r3, [r3, #0]
 8000e72:	2b0f      	cmp	r3, #15
 8000e74:	d986      	bls.n	8000d84 <_ZN4Gpio20configureAltFunctionEP12GPIO_TypeDefth+0x22>
            }
        }
    }
 8000e76:	46c0      	nop			@ (mov r8, r8)
 8000e78:	46c0      	nop			@ (mov r8, r8)
 8000e7a:	46bd      	mov	sp, r7
 8000e7c:	b006      	add	sp, #24
 8000e7e:	bd80      	pop	{r7, pc}

08000e80 <_ZN4Gpio7setHighEP12GPIO_TypeDeft>:

    void setHigh(GPIO_TypeDef* const port, uint16_t pinMask)
    {
 8000e80:	b580      	push	{r7, lr}
 8000e82:	b082      	sub	sp, #8
 8000e84:	af00      	add	r7, sp, #0
 8000e86:	6078      	str	r0, [r7, #4]
 8000e88:	000a      	movs	r2, r1
 8000e8a:	1cbb      	adds	r3, r7, #2
 8000e8c:	801a      	strh	r2, [r3, #0]
        port->BSRR = pinMask;
 8000e8e:	1cbb      	adds	r3, r7, #2
 8000e90:	881a      	ldrh	r2, [r3, #0]
 8000e92:	687b      	ldr	r3, [r7, #4]
 8000e94:	619a      	str	r2, [r3, #24]
    }
 8000e96:	46c0      	nop			@ (mov r8, r8)
 8000e98:	46bd      	mov	sp, r7
 8000e9a:	b002      	add	sp, #8
 8000e9c:	bd80      	pop	{r7, pc}

08000e9e <_ZN4Gpio6setLowEP12GPIO_TypeDeft>:

    void setLow(GPIO_TypeDef* const port, uint16_t pinMask)
    {
 8000e9e:	b580      	push	{r7, lr}
 8000ea0:	b082      	sub	sp, #8
 8000ea2:	af00      	add	r7, sp, #0
 8000ea4:	6078      	str	r0, [r7, #4]
 8000ea6:	000a      	movs	r2, r1
 8000ea8:	1cbb      	adds	r3, r7, #2
 8000eaa:	801a      	strh	r2, [r3, #0]
        port->BSRR = static_cast<uint32_t>(pinMask) << 16;
 8000eac:	1cbb      	adds	r3, r7, #2
 8000eae:	881b      	ldrh	r3, [r3, #0]
 8000eb0:	041a      	lsls	r2, r3, #16
 8000eb2:	687b      	ldr	r3, [r7, #4]
 8000eb4:	619a      	str	r2, [r3, #24]
    }
 8000eb6:	46c0      	nop			@ (mov r8, r8)
 8000eb8:	46bd      	mov	sp, r7
 8000eba:	b002      	add	sp, #8
 8000ebc:	bd80      	pop	{r7, pc}

08000ebe <_ZN4Gpio4readEP12GPIO_TypeDeft>:

    bool read(GPIO_TypeDef* const port, uint16_t pinMask)
    {
 8000ebe:	b580      	push	{r7, lr}
 8000ec0:	b082      	sub	sp, #8
 8000ec2:	af00      	add	r7, sp, #0
 8000ec4:	6078      	str	r0, [r7, #4]
 8000ec6:	000a      	movs	r2, r1
 8000ec8:	1cbb      	adds	r3, r7, #2
 8000eca:	801a      	strh	r2, [r3, #0]
        return (port->IDR & pinMask) != 0;
 8000ecc:	687b      	ldr	r3, [r7, #4]
 8000ece:	691b      	ldr	r3, [r3, #16]
 8000ed0:	1cba      	adds	r2, r7, #2
 8000ed2:	8812      	ldrh	r2, [r2, #0]
 8000ed4:	4013      	ands	r3, r2
 8000ed6:	1e5a      	subs	r2, r3, #1
 8000ed8:	4193      	sbcs	r3, r2
 8000eda:	b2db      	uxtb	r3, r3
    }
 8000edc:	0018      	movs	r0, r3
 8000ede:	46bd      	mov	sp, r7
 8000ee0:	b002      	add	sp, #8
 8000ee2:	bd80      	pop	{r7, pc}

08000ee4 <__NVIC_SetPriority>:
  \param [in]      IRQn  Interrupt number.
  \param [in]  priority  Priority to set.
  \note    The priority cannot be set for every processor exception.
 */
__STATIC_INLINE void __NVIC_SetPriority(IRQn_Type IRQn, uint32_t priority)
{
 8000ee4:	b590      	push	{r4, r7, lr}
 8000ee6:	b083      	sub	sp, #12
 8000ee8:	af00      	add	r7, sp, #0
 8000eea:	0002      	movs	r2, r0
 8000eec:	6039      	str	r1, [r7, #0]
 8000eee:	1dfb      	adds	r3, r7, #7
 8000ef0:	701a      	strb	r2, [r3, #0]
  if ((int32_t)(IRQn) >= 0)
 8000ef2:	1dfb      	adds	r3, r7, #7
 8000ef4:	781b      	ldrb	r3, [r3, #0]
 8000ef6:	2b7f      	cmp	r3, #127	@ 0x7f
 8000ef8:	d828      	bhi.n	8000f4c <__NVIC_SetPriority+0x68>
  {
    NVIC->IP[_IP_IDX(IRQn)]  = ((uint32_t)(NVIC->IP[_IP_IDX(IRQn)]  & ~(0xFFUL << _BIT_SHIFT(IRQn))) |
 8000efa:	4a2f      	ldr	r2, [pc, #188]	@ (8000fb8 <__NVIC_SetPriority+0xd4>)
 8000efc:	1dfb      	adds	r3, r7, #7
 8000efe:	781b      	ldrb	r3, [r3, #0]
 8000f00:	b25b      	sxtb	r3, r3
 8000f02:	089b      	lsrs	r3, r3, #2
 8000f04:	33c0      	adds	r3, #192	@ 0xc0
 8000f06:	009b      	lsls	r3, r3, #2
 8000f08:	589b      	ldr	r3, [r3, r2]
 8000f0a:	1dfa      	adds	r2, r7, #7
 8000f0c:	7812      	ldrb	r2, [r2, #0]
 8000f0e:	b252      	sxtb	r2, r2
 8000f10:	2103      	movs	r1, #3
 8000f12:	400a      	ands	r2, r1
 8000f14:	00d2      	lsls	r2, r2, #3
 8000f16:	21ff      	movs	r1, #255	@ 0xff
 8000f18:	4091      	lsls	r1, r2
 8000f1a:	000a      	movs	r2, r1
 8000f1c:	43d2      	mvns	r2, r2
 8000f1e:	401a      	ands	r2, r3
 8000f20:	0011      	movs	r1, r2
       (((priority << (8U - __NVIC_PRIO_BITS)) & (uint32_t)0xFFUL) << _BIT_SHIFT(IRQn)));
 8000f22:	683b      	ldr	r3, [r7, #0]
 8000f24:	019b      	lsls	r3, r3, #6
 8000f26:	22ff      	movs	r2, #255	@ 0xff
 8000f28:	401a      	ands	r2, r3
 8000f2a:	1dfb      	adds	r3, r7, #7
 8000f2c:	781b      	ldrb	r3, [r3, #0]
 8000f2e:	b25b      	sxtb	r3, r3
 8000f30:	2003      	movs	r0, #3
 8000f32:	4003      	ands	r3, r0
 8000f34:	00db      	lsls	r3, r3, #3
 8000f36:	409a      	lsls	r2, r3
    NVIC->IP[_IP_IDX(IRQn)]  = ((uint32_t)(NVIC->IP[_IP_IDX(IRQn)]  & ~(0xFFUL << _BIT_SHIFT(IRQn))) |
 8000f38:	481f      	ldr	r0, [pc, #124]	@ (8000fb8 <__NVIC_SetPriority+0xd4>)
 8000f3a:	1dfb      	adds	r3, r7, #7
 8000f3c:	781b      	ldrb	r3, [r3, #0]
 8000f3e:	b25b      	sxtb	r3, r3
 8000f40:	089b      	lsrs	r3, r3, #2
 8000f42:	430a      	orrs	r2, r1
 8000f44:	33c0      	adds	r3, #192	@ 0xc0
 8000f46:	009b      	lsls	r3, r3, #2
 8000f48:	501a      	str	r2, [r3, r0]
  else
  {
    SCB->SHP[_SHP_IDX(IRQn)] = ((uint32_t)(SCB->SHP[_SHP_IDX(IRQn)] & ~(0xFFUL << _BIT_SHIFT(IRQn))) |
       (((priority << (8U - __NVIC_PRIO_BITS)) & (uint32_t)0xFFUL) << _BIT_SHIFT(IRQn)));
  }
}
 8000f4a:	e031      	b.n	8000fb0 <__NVIC_SetPriority+0xcc>
    SCB->SHP[_SHP_IDX(IRQn)] = ((uint32_t)(SCB->SHP[_SHP_IDX(IRQn)] & ~(0xFFUL << _BIT_SHIFT(IRQn))) |
 8000f4c:	4a1b      	ldr	r2, [pc, #108]	@ (8000fbc <__NVIC_SetPriority+0xd8>)
 8000f4e:	1dfb      	adds	r3, r7, #7
 8000f50:	781b      	ldrb	r3, [r3, #0]
 8000f52:	b25b      	sxtb	r3, r3
 8000f54:	210f      	movs	r1, #15
 8000f56:	400b      	ands	r3, r1
 8000f58:	3b08      	subs	r3, #8
 8000f5a:	089b      	lsrs	r3, r3, #2
 8000f5c:	3306      	adds	r3, #6
 8000f5e:	009b      	lsls	r3, r3, #2
 8000f60:	18d3      	adds	r3, r2, r3
 8000f62:	3304      	adds	r3, #4
 8000f64:	681b      	ldr	r3, [r3, #0]
 8000f66:	1dfa      	adds	r2, r7, #7
 8000f68:	7812      	ldrb	r2, [r2, #0]
 8000f6a:	b252      	sxtb	r2, r2
 8000f6c:	2103      	movs	r1, #3
 8000f6e:	400a      	ands	r2, r1
 8000f70:	00d2      	lsls	r2, r2, #3
 8000f72:	21ff      	movs	r1, #255	@ 0xff
 8000f74:	4091      	lsls	r1, r2
 8000f76:	000a      	movs	r2, r1
 8000f78:	43d2      	mvns	r2, r2
 8000f7a:	401a      	ands	r2, r3
 8000f7c:	0011      	movs	r1, r2
       (((priority << (8U - __NVIC_PRIO_BITS)) & (uint32_t)0xFFUL) << _BIT_SHIFT(IRQn)));
 8000f7e:	683b      	ldr	r3, [r7, #0]
 8000f80:	019b      	lsls	r3, r3, #6
 8000f82:	22ff      	movs	r2, #255	@ 0xff
 8000f84:	401a      	ands	r2, r3
 8000f86:	1dfb      	adds	r3, r7, #7
 8000f88:	781b      	ldrb	r3, [r3, #0]
 8000f8a:	b25b      	sxtb	r3, r3
 8000f8c:	2003      	movs	r0, #3
 8000f8e:	4003      	ands	r3, r0
 8000f90:	00db      	lsls	r3, r3, #3
 8000f92:	409a      	lsls	r2, r3
    SCB->SHP[_SHP_IDX(IRQn)] = ((uint32_t)(SCB->SHP[_SHP_IDX(IRQn)] & ~(0xFFUL << _BIT_SHIFT(IRQn))) |
 8000f94:	4809      	ldr	r0, [pc, #36]	@ (8000fbc <__NVIC_SetPriority+0xd8>)
 8000f96:	1dfb      	adds	r3, r7, #7
 8000f98:	781b      	ldrb	r3, [r3, #0]
 8000f9a:	b25b      	sxtb	r3, r3
 8000f9c:	240f      	movs	r4, #15
 8000f9e:	4023      	ands	r3, r4
 8000fa0:	3b08      	subs	r3, #8
 8000fa2:	089b      	lsrs	r3, r3, #2
 8000fa4:	430a      	orrs	r2, r1
 8000fa6:	3306      	adds	r3, #6
 8000fa8:	009b      	lsls	r3, r3, #2
 8000faa:	18c3      	adds	r3, r0, r3
 8000fac:	3304      	adds	r3, #4
 8000fae:	601a      	str	r2, [r3, #0]
}
 8000fb0:	46c0      	nop			@ (mov r8, r8)
 8000fb2:	46bd      	mov	sp, r7
 8000fb4:	b003      	add	sp, #12
 8000fb6:	bd90      	pop	{r4, r7, pc}
 8000fb8:	e000e100 	.word	0xe000e100
 8000fbc:	e000ed00 	.word	0xe000ed00

08000fc0 <SysTick_Config>:
  \note    When the variable <b>__Vendor_SysTickConfig</b> is set to 1, then the
           function <b>SysTick_Config</b> is not included. In this case, the file <b><i>device</i>.h</b>
           must contain a vendor-specific implementation of this function.
 */
__STATIC_INLINE uint32_t SysTick_Config(uint32_t ticks)
{
 8000fc0:	b580      	push	{r7, lr}
 8000fc2:	b082      	sub	sp, #8
 8000fc4:	af00      	add	r7, sp, #0
 8000fc6:	6078      	str	r0, [r7, #4]
  if ((ticks - 1UL) > SysTick_LOAD_RELOAD_Msk)
 8000fc8:	687b      	ldr	r3, [r7, #4]
 8000fca:	1e5a      	subs	r2, r3, #1
 8000fcc:	2380      	movs	r3, #128	@ 0x80
 8000fce:	045b      	lsls	r3, r3, #17
 8000fd0:	429a      	cmp	r2, r3
 8000fd2:	d301      	bcc.n	8000fd8 <SysTick_Config+0x18>
  {
    return (1UL);                                                   /* Reload value impossible */
 8000fd4:	2301      	movs	r3, #1
 8000fd6:	e010      	b.n	8000ffa <SysTick_Config+0x3a>
  }

  SysTick->LOAD  = (uint32_t)(ticks - 1UL);                         /* set reload register */
 8000fd8:	4b0a      	ldr	r3, [pc, #40]	@ (8001004 <SysTick_Config+0x44>)
 8000fda:	687a      	ldr	r2, [r7, #4]
 8000fdc:	3a01      	subs	r2, #1
 8000fde:	605a      	str	r2, [r3, #4]
  NVIC_SetPriority (SysTick_IRQn, (1UL << __NVIC_PRIO_BITS) - 1UL); /* set Priority for Systick Interrupt */
 8000fe0:	2301      	movs	r3, #1
 8000fe2:	425b      	negs	r3, r3
 8000fe4:	2103      	movs	r1, #3
 8000fe6:	0018      	movs	r0, r3
 8000fe8:	f7ff ff7c 	bl	8000ee4 <__NVIC_SetPriority>
  SysTick->VAL   = 0UL;                                             /* Load the SysTick Counter Value */
 8000fec:	4b05      	ldr	r3, [pc, #20]	@ (8001004 <SysTick_Config+0x44>)
 8000fee:	2200      	movs	r2, #0
 8000ff0:	609a      	str	r2, [r3, #8]
  SysTick->CTRL  = SysTick_CTRL_CLKSOURCE_Msk |
 8000ff2:	4b04      	ldr	r3, [pc, #16]	@ (8001004 <SysTick_Config+0x44>)
 8000ff4:	2207      	movs	r2, #7
 8000ff6:	601a      	str	r2, [r3, #0]
                   SysTick_CTRL_TICKINT_Msk   |
                   SysTick_CTRL_ENABLE_Msk;                         /* Enable SysTick IRQ and SysTick Timer */
  return (0UL);                                                     /* Function successful */
 8000ff8:	2300      	movs	r3, #0
}
 8000ffa:	0018      	movs	r0, r3
 8000ffc:	46bd      	mov	sp, r7
 8000ffe:	b002      	add	sp, #8
 8001000:	bd80      	pop	{r7, pc}
 8001002:	46c0      	nop			@ (mov r8, r8)
 8001004:	e000e010 	.word	0xe000e010

08001008 <SysTick_Handler>:
#include "stm32f0xx.h"

static volatile uint32_t g_ms = 0;

extern "C" void SysTick_Handler(void)
{
 8001008:	b580      	push	{r7, lr}
 800100a:	af00      	add	r7, sp, #0
    ++g_ms;
 800100c:	4b03      	ldr	r3, [pc, #12]	@ (800101c <SysTick_Handler+0x14>)
 800100e:	681b      	ldr	r3, [r3, #0]
 8001010:	1c5a      	adds	r2, r3, #1
 8001012:	4b02      	ldr	r3, [pc, #8]	@ (800101c <SysTick_Handler+0x14>)
 8001014:	601a      	str	r2, [r3, #0]
}
 8001016:	46c0      	nop			@ (mov r8, r8)
 8001018:	46bd      	mov	sp, r7
 800101a:	bd80      	pop	{r7, pc}
 800101c:	20000094 	.word	0x20000094

08001020 <_ZN8Timebase4initEv>:

namespace Timebase
{
    void init()
    {
 8001020:	b580      	push	{r7, lr}
 8001022:	af00      	add	r7, sp, #0
        g_ms = 0;
 8001024:	4b08      	ldr	r3, [pc, #32]	@ (8001048 <_ZN8Timebase4initEv+0x28>)
 8001026:	2200      	movs	r2, #0
 8001028:	601a      	str	r2, [r3, #0]

        SysTick_Config(SystemCoreClock / 1000u); // 1ms tick
 800102a:	4b08      	ldr	r3, [pc, #32]	@ (800104c <_ZN8Timebase4initEv+0x2c>)
 800102c:	681b      	ldr	r3, [r3, #0]
 800102e:	22fa      	movs	r2, #250	@ 0xfa
 8001030:	0091      	lsls	r1, r2, #2
 8001032:	0018      	movs	r0, r3
 8001034:	f7ff f870 	bl	8000118 <__udivsi3>
 8001038:	0003      	movs	r3, r0
 800103a:	0018      	movs	r0, r3
 800103c:	f7ff ffc0 	bl	8000fc0 <SysTick_Config>
    }
 8001040:	46c0      	nop			@ (mov r8, r8)
 8001042:	46bd      	mov	sp, r7
 8001044:	bd80      	pop	{r7, pc}
 8001046:	46c0      	nop			@ (mov r8, r8)
 8001048:	20000094 	.word	0x20000094
 800104c:	20000024 	.word	0x20000024

08001050 <_ZN8Timebase6millisEv>:

    uint32_t millis()
    {
 8001050:	b580      	push	{r7, lr}
 8001052:	af00      	add	r7, sp, #0
        return g_ms;
 8001054:	4b02      	ldr	r3, [pc, #8]	@ (8001060 <_ZN8Timebase6millisEv+0x10>)
 8001056:	681b      	ldr	r3, [r3, #0]
    }
 8001058:	0018      	movs	r0, r3
 800105a:	46bd      	mov	sp, r7
 800105c:	bd80      	pop	{r7, pc}
 800105e:	46c0      	nop			@ (mov r8, r8)
 8001060:	20000094 	.word	0x20000094

08001064 <_ZN8Timebase7delayMsEm>:

    void delayMs(uint32_t ms)
    {
 8001064:	b580      	push	{r7, lr}
 8001066:	b084      	sub	sp, #16
 8001068:	af00      	add	r7, sp, #0
 800106a:	6078      	str	r0, [r7, #4]
        uint32_t start = millis();
 800106c:	f7ff fff0 	bl	8001050 <_ZN8Timebase6millisEv>
 8001070:	0003      	movs	r3, r0
 8001072:	60fb      	str	r3, [r7, #12]
        while ((millis() - start) < ms) { /* wait */ }
 8001074:	46c0      	nop			@ (mov r8, r8)
 8001076:	f7ff ffeb 	bl	8001050 <_ZN8Timebase6millisEv>
 800107a:	0002      	movs	r2, r0
 800107c:	68fb      	ldr	r3, [r7, #12]
 800107e:	1ad2      	subs	r2, r2, r3
 8001080:	687b      	ldr	r3, [r7, #4]
 8001082:	429a      	cmp	r2, r3
 8001084:	419b      	sbcs	r3, r3
 8001086:	425b      	negs	r3, r3
 8001088:	b2db      	uxtb	r3, r3
 800108a:	2b00      	cmp	r3, #0
 800108c:	d1f3      	bne.n	8001076 <_ZN8Timebase7delayMsEm+0x12>
    }
 800108e:	46c0      	nop			@ (mov r8, r8)
 8001090:	46c0      	nop			@ (mov r8, r8)
 8001092:	46bd      	mov	sp, r7
 8001094:	b004      	add	sp, #16
 8001096:	bd80      	pop	{r7, pc}

08001098 <_ZN8Timebase6microsEv>:
    uint32_t micros()
    {
 8001098:	b580      	push	{r7, lr}
 800109a:	b088      	sub	sp, #32
 800109c:	af00      	add	r7, sp, #0
        const uint32_t ticks_per_us = SystemCoreClock / 1000000u;
 800109e:	4b18      	ldr	r3, [pc, #96]	@ (8001100 <_ZN8Timebase6microsEv+0x68>)
 80010a0:	681b      	ldr	r3, [r3, #0]
 80010a2:	4918      	ldr	r1, [pc, #96]	@ (8001104 <_ZN8Timebase6microsEv+0x6c>)
 80010a4:	0018      	movs	r0, r3
 80010a6:	f7ff f837 	bl	8000118 <__udivsi3>
 80010aa:	0003      	movs	r3, r0
 80010ac:	61fb      	str	r3, [r7, #28]
        const uint32_t reload = SysTick->LOAD + 1u;
 80010ae:	4b16      	ldr	r3, [pc, #88]	@ (8001108 <_ZN8Timebase6microsEv+0x70>)
 80010b0:	685b      	ldr	r3, [r3, #4]
 80010b2:	3301      	adds	r3, #1
 80010b4:	61bb      	str	r3, [r7, #24]
        uint32_t ms1, ms2, val;
        do {
                    ms1 = g_ms;
 80010b6:	4b15      	ldr	r3, [pc, #84]	@ (800110c <_ZN8Timebase6microsEv+0x74>)
 80010b8:	681b      	ldr	r3, [r3, #0]
 80010ba:	617b      	str	r3, [r7, #20]
                    val = SysTick->VAL;
 80010bc:	4b12      	ldr	r3, [pc, #72]	@ (8001108 <_ZN8Timebase6microsEv+0x70>)
 80010be:	689b      	ldr	r3, [r3, #8]
 80010c0:	613b      	str	r3, [r7, #16]
                    ms2 = g_ms;
 80010c2:	4b12      	ldr	r3, [pc, #72]	@ (800110c <_ZN8Timebase6microsEv+0x74>)
 80010c4:	681b      	ldr	r3, [r3, #0]
 80010c6:	60fb      	str	r3, [r7, #12]
                } while (ms1 != ms2);
 80010c8:	697a      	ldr	r2, [r7, #20]
 80010ca:	68fb      	ldr	r3, [r7, #12]
 80010cc:	429a      	cmp	r2, r3
 80010ce:	d1f2      	bne.n	80010b6 <_ZN8Timebase6microsEv+0x1e>


                const uint32_t elapsed_ticks = (reload - val);
 80010d0:	69ba      	ldr	r2, [r7, #24]
 80010d2:	693b      	ldr	r3, [r7, #16]
 80010d4:	1ad3      	subs	r3, r2, r3
 80010d6:	60bb      	str	r3, [r7, #8]
                const uint32_t elapsed_us_in_ms = elapsed_ticks / ticks_per_us;
 80010d8:	69f9      	ldr	r1, [r7, #28]
 80010da:	68b8      	ldr	r0, [r7, #8]
 80010dc:	f7ff f81c 	bl	8000118 <__udivsi3>
 80010e0:	0003      	movs	r3, r0
 80010e2:	607b      	str	r3, [r7, #4]

                return (ms1 * 1000u) + elapsed_us_in_ms;
 80010e4:	697a      	ldr	r2, [r7, #20]
 80010e6:	0013      	movs	r3, r2
 80010e8:	015b      	lsls	r3, r3, #5
 80010ea:	1a9b      	subs	r3, r3, r2
 80010ec:	009b      	lsls	r3, r3, #2
 80010ee:	189b      	adds	r3, r3, r2
 80010f0:	00db      	lsls	r3, r3, #3
 80010f2:	001a      	movs	r2, r3
 80010f4:	687b      	ldr	r3, [r7, #4]
 80010f6:	18d3      	adds	r3, r2, r3
    }
 80010f8:	0018      	movs	r0, r3
 80010fa:	46bd      	mov	sp, r7
 80010fc:	b008      	add	sp, #32
 80010fe:	bd80      	pop	{r7, pc}
 8001100:	20000024 	.word	0x20000024
 8001104:	000f4240 	.word	0x000f4240
 8001108:	e000e010 	.word	0xe000e010
 800110c:	20000094 	.word	0x20000094

08001110 <_ZN8Timebase7delayUsEm>:

    void delayUs(uint32_t us)
    {
 8001110:	b580      	push	{r7, lr}
 8001112:	b084      	sub	sp, #16
 8001114:	af00      	add	r7, sp, #0
 8001116:	6078      	str	r0, [r7, #4]
        const uint32_t start = micros();
 8001118:	f7ff ffbe 	bl	8001098 <_ZN8Timebase6microsEv>
 800111c:	0003      	movs	r3, r0
 800111e:	60fb      	str	r3, [r7, #12]
        while ((micros() - start) < us)
 8001120:	e000      	b.n	8001124 <_ZN8Timebase7delayUsEm+0x14>
        {
            __NOP();
 8001122:	46c0      	nop			@ (mov r8, r8)
        while ((micros() - start) < us)
 8001124:	f7ff ffb8 	bl	8001098 <_ZN8Timebase6microsEv>
 8001128:	0002      	movs	r2, r0
 800112a:	68fb      	ldr	r3, [r7, #12]
 800112c:	1ad2      	subs	r2, r2, r3
 800112e:	687b      	ldr	r3, [r7, #4]
 8001130:	429a      	cmp	r2, r3
 8001132:	419b      	sbcs	r3, r3
 8001134:	425b      	negs	r3, r3
 8001136:	b2db      	uxtb	r3, r3
 8001138:	2b00      	cmp	r3, #0
 800113a:	d1f2      	bne.n	8001122 <_ZN8Timebase7delayUsEm+0x12>
        }
    }
 800113c:	46c0      	nop			@ (mov r8, r8)
 800113e:	46c0      	nop			@ (mov r8, r8)
 8001140:	46bd      	mov	sp, r7
 8001142:	b004      	add	sp, #16
 8001144:	bd80      	pop	{r7, pc}

08001146 <_ZN12_GLOBAL__N_116pinIndexFromMaskEt>:
namespace
{
    constexpr uint32_t PCLK_HZ = 48000000u;

    inline uint8_t pinIndexFromMask(uint16_t pinMask)
    {
 8001146:	b580      	push	{r7, lr}
 8001148:	b084      	sub	sp, #16
 800114a:	af00      	add	r7, sp, #0
 800114c:	0002      	movs	r2, r0
 800114e:	1dbb      	adds	r3, r7, #6
 8001150:	801a      	strh	r2, [r3, #0]
        for (uint8_t i = 0; i < 16; ++i)
 8001152:	230f      	movs	r3, #15
 8001154:	18fb      	adds	r3, r7, r3
 8001156:	2200      	movs	r2, #0
 8001158:	701a      	strb	r2, [r3, #0]
 800115a:	e012      	b.n	8001182 <_ZN12_GLOBAL__N_116pinIndexFromMaskEt+0x3c>
        {
            if (pinMask == (1u << i)) return i;
 800115c:	1dbb      	adds	r3, r7, #6
 800115e:	881a      	ldrh	r2, [r3, #0]
 8001160:	200f      	movs	r0, #15
 8001162:	183b      	adds	r3, r7, r0
 8001164:	781b      	ldrb	r3, [r3, #0]
 8001166:	2101      	movs	r1, #1
 8001168:	4099      	lsls	r1, r3
 800116a:	000b      	movs	r3, r1
 800116c:	429a      	cmp	r2, r3
 800116e:	d102      	bne.n	8001176 <_ZN12_GLOBAL__N_116pinIndexFromMaskEt+0x30>
 8001170:	183b      	adds	r3, r7, r0
 8001172:	781b      	ldrb	r3, [r3, #0]
 8001174:	e00b      	b.n	800118e <_ZN12_GLOBAL__N_116pinIndexFromMaskEt+0x48>
        for (uint8_t i = 0; i < 16; ++i)
 8001176:	220f      	movs	r2, #15
 8001178:	18bb      	adds	r3, r7, r2
 800117a:	18ba      	adds	r2, r7, r2
 800117c:	7812      	ldrb	r2, [r2, #0]
 800117e:	3201      	adds	r2, #1
 8001180:	701a      	strb	r2, [r3, #0]
 8001182:	230f      	movs	r3, #15
 8001184:	18fb      	adds	r3, r7, r3
 8001186:	781b      	ldrb	r3, [r3, #0]
 8001188:	2b0f      	cmp	r3, #15
 800118a:	d9e7      	bls.n	800115c <_ZN12_GLOBAL__N_116pinIndexFromMaskEt+0x16>
        }
        return 0;
 800118c:	2300      	movs	r3, #0
    }
 800118e:	0018      	movs	r0, r3
 8001190:	46bd      	mov	sp, r7
 8001192:	b004      	add	sp, #16
 8001194:	bd80      	pop	{r7, pc}
	...

08001198 <_ZN12_GLOBAL__N_116enableUartClock_EP13USART_TypeDef>:

    inline void enableUartClock_(USART_TypeDef* uart)
    {
 8001198:	b580      	push	{r7, lr}
 800119a:	b082      	sub	sp, #8
 800119c:	af00      	add	r7, sp, #0
 800119e:	6078      	str	r0, [r7, #4]
        if (uart == USART1)
 80011a0:	687b      	ldr	r3, [r7, #4]
 80011a2:	4a10      	ldr	r2, [pc, #64]	@ (80011e4 <_ZN12_GLOBAL__N_116enableUartClock_EP13USART_TypeDef+0x4c>)
 80011a4:	4293      	cmp	r3, r2
 80011a6:	d107      	bne.n	80011b8 <_ZN12_GLOBAL__N_116enableUartClock_EP13USART_TypeDef+0x20>
        {
            RCC->APB2ENR |= RCC_APB2ENR_USART1EN;
 80011a8:	4b0f      	ldr	r3, [pc, #60]	@ (80011e8 <_ZN12_GLOBAL__N_116enableUartClock_EP13USART_TypeDef+0x50>)
 80011aa:	699a      	ldr	r2, [r3, #24]
 80011ac:	4b0e      	ldr	r3, [pc, #56]	@ (80011e8 <_ZN12_GLOBAL__N_116enableUartClock_EP13USART_TypeDef+0x50>)
 80011ae:	2180      	movs	r1, #128	@ 0x80
 80011b0:	01c9      	lsls	r1, r1, #7
 80011b2:	430a      	orrs	r2, r1
 80011b4:	619a      	str	r2, [r3, #24]
            RCC->APB1ENR |= RCC_APB1ENR_USART2EN;
#ifdef RCC_CFGR3_USART2SW
            RCC->CFGR3 &= ~RCC_CFGR3_USART2SW;
#endif
        }
    }
 80011b6:	e010      	b.n	80011da <_ZN12_GLOBAL__N_116enableUartClock_EP13USART_TypeDef+0x42>
        else if (uart == USART2)
 80011b8:	687b      	ldr	r3, [r7, #4]
 80011ba:	4a0c      	ldr	r2, [pc, #48]	@ (80011ec <_ZN12_GLOBAL__N_116enableUartClock_EP13USART_TypeDef+0x54>)
 80011bc:	4293      	cmp	r3, r2
 80011be:	d10c      	bne.n	80011da <_ZN12_GLOBAL__N_116enableUartClock_EP13USART_TypeDef+0x42>
            RCC->APB1ENR |= RCC_APB1ENR_USART2EN;
 80011c0:	4b09      	ldr	r3, [pc, #36]	@ (80011e8 <_ZN12_GLOBAL__N_116enableUartClock_EP13USART_TypeDef+0x50>)
 80011c2:	69da      	ldr	r2, [r3, #28]
 80011c4:	4b08      	ldr	r3, [pc, #32]	@ (80011e8 <_ZN12_GLOBAL__N_116enableUartClock_EP13USART_TypeDef+0x50>)
 80011c6:	2180      	movs	r1, #128	@ 0x80
 80011c8:	0289      	lsls	r1, r1, #10
 80011ca:	430a      	orrs	r2, r1
 80011cc:	61da      	str	r2, [r3, #28]
            RCC->CFGR3 &= ~RCC_CFGR3_USART2SW;
 80011ce:	4b06      	ldr	r3, [pc, #24]	@ (80011e8 <_ZN12_GLOBAL__N_116enableUartClock_EP13USART_TypeDef+0x50>)
 80011d0:	6b1a      	ldr	r2, [r3, #48]	@ 0x30
 80011d2:	4b05      	ldr	r3, [pc, #20]	@ (80011e8 <_ZN12_GLOBAL__N_116enableUartClock_EP13USART_TypeDef+0x50>)
 80011d4:	4906      	ldr	r1, [pc, #24]	@ (80011f0 <_ZN12_GLOBAL__N_116enableUartClock_EP13USART_TypeDef+0x58>)
 80011d6:	400a      	ands	r2, r1
 80011d8:	631a      	str	r2, [r3, #48]	@ 0x30
    }
 80011da:	46c0      	nop			@ (mov r8, r8)
 80011dc:	46bd      	mov	sp, r7
 80011de:	b002      	add	sp, #8
 80011e0:	bd80      	pop	{r7, pc}
 80011e2:	46c0      	nop			@ (mov r8, r8)
 80011e4:	40013800 	.word	0x40013800
 80011e8:	40021000 	.word	0x40021000
 80011ec:	40004400 	.word	0x40004400
 80011f0:	fffcffff 	.word	0xfffcffff

080011f4 <_ZZN12_GLOBAL__N_120configureUartPinsAf_EP12GPIO_TypeDefttENKUlhE_clEh>:
        port->MODER |=  ((2u << (txPin * 2)) | (2u << (rxPin * 2)));

        port->PUPDR &= ~((3u << (txPin * 2)) | (3u << (rxPin * 2)));
        port->PUPDR |=  (1u << (rxPin * 2)); // pull-up RX

        auto setAf1 = [&](uint8_t pin)
 80011f4:	b5b0      	push	{r4, r5, r7, lr}
 80011f6:	b084      	sub	sp, #16
 80011f8:	af00      	add	r7, sp, #0
 80011fa:	6078      	str	r0, [r7, #4]
 80011fc:	000a      	movs	r2, r1
 80011fe:	1cfb      	adds	r3, r7, #3
 8001200:	701a      	strb	r2, [r3, #0]
        {
            const uint8_t afrIndex = (pin >= 8) ? 1 : 0;
 8001202:	1cfb      	adds	r3, r7, #3
 8001204:	781b      	ldrb	r3, [r3, #0]
 8001206:	2b07      	cmp	r3, #7
 8001208:	d901      	bls.n	800120e <_ZZN12_GLOBAL__N_120configureUartPinsAf_EP12GPIO_TypeDefttENKUlhE_clEh+0x1a>
 800120a:	2201      	movs	r2, #1
 800120c:	e000      	b.n	8001210 <_ZZN12_GLOBAL__N_120configureUartPinsAf_EP12GPIO_TypeDefttENKUlhE_clEh+0x1c>
 800120e:	2200      	movs	r2, #0
 8001210:	230f      	movs	r3, #15
 8001212:	18fb      	adds	r3, r7, r3
 8001214:	701a      	strb	r2, [r3, #0]
            const uint8_t afrShift = (pin >= 8) ? (pin - 8) : pin;
 8001216:	1cfb      	adds	r3, r7, #3
 8001218:	781b      	ldrb	r3, [r3, #0]
 800121a:	2b07      	cmp	r3, #7
 800121c:	d904      	bls.n	8001228 <_ZZN12_GLOBAL__N_120configureUartPinsAf_EP12GPIO_TypeDefttENKUlhE_clEh+0x34>
 800121e:	1cfb      	adds	r3, r7, #3
 8001220:	781b      	ldrb	r3, [r3, #0]
 8001222:	3b08      	subs	r3, #8
 8001224:	b2db      	uxtb	r3, r3
 8001226:	e001      	b.n	800122c <_ZZN12_GLOBAL__N_120configureUartPinsAf_EP12GPIO_TypeDefttENKUlhE_clEh+0x38>
 8001228:	1cfb      	adds	r3, r7, #3
 800122a:	781b      	ldrb	r3, [r3, #0]
 800122c:	250e      	movs	r5, #14
 800122e:	197a      	adds	r2, r7, r5
 8001230:	7013      	strb	r3, [r2, #0]
            port->AFR[afrIndex] &= ~(0xFu << (4u * afrShift));
 8001232:	687b      	ldr	r3, [r7, #4]
 8001234:	681b      	ldr	r3, [r3, #0]
 8001236:	681b      	ldr	r3, [r3, #0]
 8001238:	240f      	movs	r4, #15
 800123a:	193a      	adds	r2, r7, r4
 800123c:	7812      	ldrb	r2, [r2, #0]
 800123e:	3208      	adds	r2, #8
 8001240:	0092      	lsls	r2, r2, #2
 8001242:	58d1      	ldr	r1, [r2, r3]
 8001244:	197b      	adds	r3, r7, r5
 8001246:	781b      	ldrb	r3, [r3, #0]
 8001248:	009b      	lsls	r3, r3, #2
 800124a:	220f      	movs	r2, #15
 800124c:	409a      	lsls	r2, r3
 800124e:	0013      	movs	r3, r2
 8001250:	43d8      	mvns	r0, r3
 8001252:	687b      	ldr	r3, [r7, #4]
 8001254:	681b      	ldr	r3, [r3, #0]
 8001256:	681b      	ldr	r3, [r3, #0]
 8001258:	193a      	adds	r2, r7, r4
 800125a:	7812      	ldrb	r2, [r2, #0]
 800125c:	4001      	ands	r1, r0
 800125e:	3208      	adds	r2, #8
 8001260:	0092      	lsls	r2, r2, #2
 8001262:	50d1      	str	r1, [r2, r3]
 8001264:	687b      	ldr	r3, [r7, #4]
 8001266:	681b      	ldr	r3, [r3, #0]
            port->AFR[afrIndex] |=  (1u   << (4u * afrShift)); // AF1
 8001268:	681b      	ldr	r3, [r3, #0]
 800126a:	193a      	adds	r2, r7, r4
 800126c:	7812      	ldrb	r2, [r2, #0]
 800126e:	3208      	adds	r2, #8
 8001270:	0092      	lsls	r2, r2, #2
 8001272:	58d0      	ldr	r0, [r2, r3]
 8001274:	197b      	adds	r3, r7, r5
 8001276:	781b      	ldrb	r3, [r3, #0]
 8001278:	009b      	lsls	r3, r3, #2
 800127a:	2201      	movs	r2, #1
 800127c:	409a      	lsls	r2, r3
 800127e:	0011      	movs	r1, r2
            port->AFR[afrIndex] &= ~(0xFu << (4u * afrShift));
 8001280:	687b      	ldr	r3, [r7, #4]
 8001282:	681b      	ldr	r3, [r3, #0]
            port->AFR[afrIndex] |=  (1u   << (4u * afrShift)); // AF1
 8001284:	681b      	ldr	r3, [r3, #0]
 8001286:	193a      	adds	r2, r7, r4
 8001288:	7812      	ldrb	r2, [r2, #0]
 800128a:	4301      	orrs	r1, r0
 800128c:	3208      	adds	r2, #8
 800128e:	0092      	lsls	r2, r2, #2
 8001290:	50d1      	str	r1, [r2, r3]
        };
 8001292:	46c0      	nop			@ (mov r8, r8)
 8001294:	46bd      	mov	sp, r7
 8001296:	b004      	add	sp, #16
 8001298:	bdb0      	pop	{r4, r5, r7, pc}
	...

0800129c <_ZN12_GLOBAL__N_120configureUartPinsAf_EP12GPIO_TypeDeftt>:
    {
 800129c:	b5f0      	push	{r4, r5, r6, r7, lr}
 800129e:	b085      	sub	sp, #20
 80012a0:	af00      	add	r7, sp, #0
 80012a2:	6078      	str	r0, [r7, #4]
 80012a4:	0008      	movs	r0, r1
 80012a6:	0011      	movs	r1, r2
 80012a8:	1cbb      	adds	r3, r7, #2
 80012aa:	1c02      	adds	r2, r0, #0
 80012ac:	801a      	strh	r2, [r3, #0]
 80012ae:	003b      	movs	r3, r7
 80012b0:	1c0a      	adds	r2, r1, #0
 80012b2:	801a      	strh	r2, [r3, #0]
        if (port == GPIOA) RCC->AHBENR |= RCC_AHBENR_GPIOAEN;
 80012b4:	687a      	ldr	r2, [r7, #4]
 80012b6:	2390      	movs	r3, #144	@ 0x90
 80012b8:	05db      	lsls	r3, r3, #23
 80012ba:	429a      	cmp	r2, r3
 80012bc:	d107      	bne.n	80012ce <_ZN12_GLOBAL__N_120configureUartPinsAf_EP12GPIO_TypeDeftt+0x32>
 80012be:	4b58      	ldr	r3, [pc, #352]	@ (8001420 <_ZN12_GLOBAL__N_120configureUartPinsAf_EP12GPIO_TypeDeftt+0x184>)
 80012c0:	695a      	ldr	r2, [r3, #20]
 80012c2:	4b57      	ldr	r3, [pc, #348]	@ (8001420 <_ZN12_GLOBAL__N_120configureUartPinsAf_EP12GPIO_TypeDeftt+0x184>)
 80012c4:	2180      	movs	r1, #128	@ 0x80
 80012c6:	0289      	lsls	r1, r1, #10
 80012c8:	430a      	orrs	r2, r1
 80012ca:	615a      	str	r2, [r3, #20]
 80012cc:	e02e      	b.n	800132c <_ZN12_GLOBAL__N_120configureUartPinsAf_EP12GPIO_TypeDeftt+0x90>
        else if (port == GPIOB) RCC->AHBENR |= RCC_AHBENR_GPIOBEN;
 80012ce:	687b      	ldr	r3, [r7, #4]
 80012d0:	4a54      	ldr	r2, [pc, #336]	@ (8001424 <_ZN12_GLOBAL__N_120configureUartPinsAf_EP12GPIO_TypeDeftt+0x188>)
 80012d2:	4293      	cmp	r3, r2
 80012d4:	d107      	bne.n	80012e6 <_ZN12_GLOBAL__N_120configureUartPinsAf_EP12GPIO_TypeDeftt+0x4a>
 80012d6:	4b52      	ldr	r3, [pc, #328]	@ (8001420 <_ZN12_GLOBAL__N_120configureUartPinsAf_EP12GPIO_TypeDeftt+0x184>)
 80012d8:	695a      	ldr	r2, [r3, #20]
 80012da:	4b51      	ldr	r3, [pc, #324]	@ (8001420 <_ZN12_GLOBAL__N_120configureUartPinsAf_EP12GPIO_TypeDeftt+0x184>)
 80012dc:	2180      	movs	r1, #128	@ 0x80
 80012de:	02c9      	lsls	r1, r1, #11
 80012e0:	430a      	orrs	r2, r1
 80012e2:	615a      	str	r2, [r3, #20]
 80012e4:	e022      	b.n	800132c <_ZN12_GLOBAL__N_120configureUartPinsAf_EP12GPIO_TypeDeftt+0x90>
        else if (port == GPIOC) RCC->AHBENR |= RCC_AHBENR_GPIOCEN;
 80012e6:	687b      	ldr	r3, [r7, #4]
 80012e8:	4a4f      	ldr	r2, [pc, #316]	@ (8001428 <_ZN12_GLOBAL__N_120configureUartPinsAf_EP12GPIO_TypeDeftt+0x18c>)
 80012ea:	4293      	cmp	r3, r2
 80012ec:	d107      	bne.n	80012fe <_ZN12_GLOBAL__N_120configureUartPinsAf_EP12GPIO_TypeDeftt+0x62>
 80012ee:	4b4c      	ldr	r3, [pc, #304]	@ (8001420 <_ZN12_GLOBAL__N_120configureUartPinsAf_EP12GPIO_TypeDeftt+0x184>)
 80012f0:	695a      	ldr	r2, [r3, #20]
 80012f2:	4b4b      	ldr	r3, [pc, #300]	@ (8001420 <_ZN12_GLOBAL__N_120configureUartPinsAf_EP12GPIO_TypeDeftt+0x184>)
 80012f4:	2180      	movs	r1, #128	@ 0x80
 80012f6:	0309      	lsls	r1, r1, #12
 80012f8:	430a      	orrs	r2, r1
 80012fa:	615a      	str	r2, [r3, #20]
 80012fc:	e016      	b.n	800132c <_ZN12_GLOBAL__N_120configureUartPinsAf_EP12GPIO_TypeDeftt+0x90>
        else if (port == GPIOD) RCC->AHBENR |= RCC_AHBENR_GPIODEN;
 80012fe:	687b      	ldr	r3, [r7, #4]
 8001300:	4a4a      	ldr	r2, [pc, #296]	@ (800142c <_ZN12_GLOBAL__N_120configureUartPinsAf_EP12GPIO_TypeDeftt+0x190>)
 8001302:	4293      	cmp	r3, r2
 8001304:	d107      	bne.n	8001316 <_ZN12_GLOBAL__N_120configureUartPinsAf_EP12GPIO_TypeDeftt+0x7a>
 8001306:	4b46      	ldr	r3, [pc, #280]	@ (8001420 <_ZN12_GLOBAL__N_120configureUartPinsAf_EP12GPIO_TypeDeftt+0x184>)
 8001308:	695a      	ldr	r2, [r3, #20]
 800130a:	4b45      	ldr	r3, [pc, #276]	@ (8001420 <_ZN12_GLOBAL__N_120configureUartPinsAf_EP12GPIO_TypeDeftt+0x184>)
 800130c:	2180      	movs	r1, #128	@ 0x80
 800130e:	0349      	lsls	r1, r1, #13
 8001310:	430a      	orrs	r2, r1
 8001312:	615a      	str	r2, [r3, #20]
 8001314:	e00a      	b.n	800132c <_ZN12_GLOBAL__N_120configureUartPinsAf_EP12GPIO_TypeDeftt+0x90>
        else if (port == GPIOF) RCC->AHBENR |= RCC_AHBENR_GPIOFEN;
 8001316:	687b      	ldr	r3, [r7, #4]
 8001318:	4a45      	ldr	r2, [pc, #276]	@ (8001430 <_ZN12_GLOBAL__N_120configureUartPinsAf_EP12GPIO_TypeDeftt+0x194>)
 800131a:	4293      	cmp	r3, r2
 800131c:	d106      	bne.n	800132c <_ZN12_GLOBAL__N_120configureUartPinsAf_EP12GPIO_TypeDeftt+0x90>
 800131e:	4b40      	ldr	r3, [pc, #256]	@ (8001420 <_ZN12_GLOBAL__N_120configureUartPinsAf_EP12GPIO_TypeDeftt+0x184>)
 8001320:	695a      	ldr	r2, [r3, #20]
 8001322:	4b3f      	ldr	r3, [pc, #252]	@ (8001420 <_ZN12_GLOBAL__N_120configureUartPinsAf_EP12GPIO_TypeDeftt+0x184>)
 8001324:	2180      	movs	r1, #128	@ 0x80
 8001326:	03c9      	lsls	r1, r1, #15
 8001328:	430a      	orrs	r2, r1
 800132a:	615a      	str	r2, [r3, #20]
        const uint8_t txPin = pinIndexFromMask(txMask);
 800132c:	260f      	movs	r6, #15
 800132e:	19bc      	adds	r4, r7, r6
 8001330:	1cbb      	adds	r3, r7, #2
 8001332:	881b      	ldrh	r3, [r3, #0]
 8001334:	0018      	movs	r0, r3
 8001336:	f7ff ff06 	bl	8001146 <_ZN12_GLOBAL__N_116pinIndexFromMaskEt>
 800133a:	0003      	movs	r3, r0
 800133c:	7023      	strb	r3, [r4, #0]
        const uint8_t rxPin = pinIndexFromMask(rxMask);
 800133e:	250e      	movs	r5, #14
 8001340:	197c      	adds	r4, r7, r5
 8001342:	003b      	movs	r3, r7
 8001344:	881b      	ldrh	r3, [r3, #0]
 8001346:	0018      	movs	r0, r3
 8001348:	f7ff fefd 	bl	8001146 <_ZN12_GLOBAL__N_116pinIndexFromMaskEt>
 800134c:	0003      	movs	r3, r0
 800134e:	7023      	strb	r3, [r4, #0]
        port->MODER &= ~((3u << (txPin * 2)) | (3u << (rxPin * 2)));
 8001350:	687b      	ldr	r3, [r7, #4]
 8001352:	681a      	ldr	r2, [r3, #0]
 8001354:	19bb      	adds	r3, r7, r6
 8001356:	781b      	ldrb	r3, [r3, #0]
 8001358:	005b      	lsls	r3, r3, #1
 800135a:	2103      	movs	r1, #3
 800135c:	4099      	lsls	r1, r3
 800135e:	002c      	movs	r4, r5
 8001360:	193b      	adds	r3, r7, r4
 8001362:	781b      	ldrb	r3, [r3, #0]
 8001364:	005b      	lsls	r3, r3, #1
 8001366:	2003      	movs	r0, #3
 8001368:	4098      	lsls	r0, r3
 800136a:	0003      	movs	r3, r0
 800136c:	430b      	orrs	r3, r1
 800136e:	43d9      	mvns	r1, r3
 8001370:	687b      	ldr	r3, [r7, #4]
 8001372:	400a      	ands	r2, r1
 8001374:	601a      	str	r2, [r3, #0]
        port->MODER |=  ((2u << (txPin * 2)) | (2u << (rxPin * 2)));
 8001376:	687b      	ldr	r3, [r7, #4]
 8001378:	6819      	ldr	r1, [r3, #0]
 800137a:	0035      	movs	r5, r6
 800137c:	197b      	adds	r3, r7, r5
 800137e:	781b      	ldrb	r3, [r3, #0]
 8001380:	005b      	lsls	r3, r3, #1
 8001382:	2202      	movs	r2, #2
 8001384:	409a      	lsls	r2, r3
 8001386:	193b      	adds	r3, r7, r4
 8001388:	781b      	ldrb	r3, [r3, #0]
 800138a:	005b      	lsls	r3, r3, #1
 800138c:	2002      	movs	r0, #2
 800138e:	4098      	lsls	r0, r3
 8001390:	0003      	movs	r3, r0
 8001392:	431a      	orrs	r2, r3
 8001394:	687b      	ldr	r3, [r7, #4]
 8001396:	430a      	orrs	r2, r1
 8001398:	601a      	str	r2, [r3, #0]
        port->PUPDR &= ~((3u << (txPin * 2)) | (3u << (rxPin * 2)));
 800139a:	687b      	ldr	r3, [r7, #4]
 800139c:	68da      	ldr	r2, [r3, #12]
 800139e:	197b      	adds	r3, r7, r5
 80013a0:	781b      	ldrb	r3, [r3, #0]
 80013a2:	005b      	lsls	r3, r3, #1
 80013a4:	2103      	movs	r1, #3
 80013a6:	4099      	lsls	r1, r3
 80013a8:	193b      	adds	r3, r7, r4
 80013aa:	781b      	ldrb	r3, [r3, #0]
 80013ac:	005b      	lsls	r3, r3, #1
 80013ae:	2003      	movs	r0, #3
 80013b0:	4098      	lsls	r0, r3
 80013b2:	0003      	movs	r3, r0
 80013b4:	430b      	orrs	r3, r1
 80013b6:	43d9      	mvns	r1, r3
 80013b8:	687b      	ldr	r3, [r7, #4]
 80013ba:	400a      	ands	r2, r1
 80013bc:	60da      	str	r2, [r3, #12]
        port->PUPDR |=  (1u << (rxPin * 2)); // pull-up RX
 80013be:	687b      	ldr	r3, [r7, #4]
 80013c0:	68d9      	ldr	r1, [r3, #12]
 80013c2:	193b      	adds	r3, r7, r4
 80013c4:	781b      	ldrb	r3, [r3, #0]
 80013c6:	005b      	lsls	r3, r3, #1
 80013c8:	2201      	movs	r2, #1
 80013ca:	409a      	lsls	r2, r3
 80013cc:	687b      	ldr	r3, [r7, #4]
 80013ce:	430a      	orrs	r2, r1
 80013d0:	60da      	str	r2, [r3, #12]
        };
 80013d2:	1d3b      	adds	r3, r7, #4
 80013d4:	60bb      	str	r3, [r7, #8]

        setAf1(txPin);
 80013d6:	197b      	adds	r3, r7, r5
 80013d8:	781a      	ldrb	r2, [r3, #0]
 80013da:	2608      	movs	r6, #8
 80013dc:	19bb      	adds	r3, r7, r6
 80013de:	0011      	movs	r1, r2
 80013e0:	0018      	movs	r0, r3
 80013e2:	f7ff ff07 	bl	80011f4 <_ZZN12_GLOBAL__N_120configureUartPinsAf_EP12GPIO_TypeDefttENKUlhE_clEh>
        setAf1(rxPin);
 80013e6:	193b      	adds	r3, r7, r4
 80013e8:	781a      	ldrb	r2, [r3, #0]
 80013ea:	19bb      	adds	r3, r7, r6
 80013ec:	0011      	movs	r1, r2
 80013ee:	0018      	movs	r0, r3
 80013f0:	f7ff ff00 	bl	80011f4 <_ZZN12_GLOBAL__N_120configureUartPinsAf_EP12GPIO_TypeDefttENKUlhE_clEh>

        port->OSPEEDR |= (3u << (txPin * 2)) | (3u << (rxPin * 2));
 80013f4:	687b      	ldr	r3, [r7, #4]
 80013f6:	6899      	ldr	r1, [r3, #8]
 80013f8:	197b      	adds	r3, r7, r5
 80013fa:	781b      	ldrb	r3, [r3, #0]
 80013fc:	005b      	lsls	r3, r3, #1
 80013fe:	2203      	movs	r2, #3
 8001400:	409a      	lsls	r2, r3
 8001402:	193b      	adds	r3, r7, r4
 8001404:	781b      	ldrb	r3, [r3, #0]
 8001406:	005b      	lsls	r3, r3, #1
 8001408:	2003      	movs	r0, #3
 800140a:	4098      	lsls	r0, r3
 800140c:	0003      	movs	r3, r0
 800140e:	431a      	orrs	r2, r3
 8001410:	687b      	ldr	r3, [r7, #4]
 8001412:	430a      	orrs	r2, r1
 8001414:	609a      	str	r2, [r3, #8]
    }
 8001416:	46c0      	nop			@ (mov r8, r8)
 8001418:	46bd      	mov	sp, r7
 800141a:	b005      	add	sp, #20
 800141c:	bdf0      	pop	{r4, r5, r6, r7, pc}
 800141e:	46c0      	nop			@ (mov r8, r8)
 8001420:	40021000 	.word	0x40021000
 8001424:	48000400 	.word	0x48000400
 8001428:	48000800 	.word	0x48000800
 800142c:	48000c00 	.word	0x48000c00
 8001430:	48001400 	.word	0x48001400

08001434 <_ZN12_GLOBAL__N_114configureUart_EP13USART_TypeDefm>:

    inline void configureUart_(USART_TypeDef* uart, uint32_t baud)
    {
 8001434:	b580      	push	{r7, lr}
 8001436:	b084      	sub	sp, #16
 8001438:	af00      	add	r7, sp, #0
 800143a:	6078      	str	r0, [r7, #4]
 800143c:	6039      	str	r1, [r7, #0]
        enableUartClock_(uart);
 800143e:	687b      	ldr	r3, [r7, #4]
 8001440:	0018      	movs	r0, r3
 8001442:	f7ff fea9 	bl	8001198 <_ZN12_GLOBAL__N_116enableUartClock_EP13USART_TypeDef>

        uart->CR1 = 0;
 8001446:	687b      	ldr	r3, [r7, #4]
 8001448:	2200      	movs	r2, #0
 800144a:	601a      	str	r2, [r3, #0]
        uart->CR2 = 0;
 800144c:	687b      	ldr	r3, [r7, #4]
 800144e:	2200      	movs	r2, #0
 8001450:	605a      	str	r2, [r3, #4]
        uart->CR3 = 0;
 8001452:	687b      	ldr	r3, [r7, #4]
 8001454:	2200      	movs	r2, #0
 8001456:	609a      	str	r2, [r3, #8]

        const uint32_t brr = (PCLK_HZ + (baud / 2u)) / baud;
 8001458:	683b      	ldr	r3, [r7, #0]
 800145a:	085b      	lsrs	r3, r3, #1
 800145c:	4a0e      	ldr	r2, [pc, #56]	@ (8001498 <_ZN12_GLOBAL__N_114configureUart_EP13USART_TypeDefm+0x64>)
 800145e:	4694      	mov	ip, r2
 8001460:	4463      	add	r3, ip
 8001462:	6839      	ldr	r1, [r7, #0]
 8001464:	0018      	movs	r0, r3
 8001466:	f7fe fe57 	bl	8000118 <__udivsi3>
 800146a:	0003      	movs	r3, r0
 800146c:	60fb      	str	r3, [r7, #12]
        uart->BRR = brr;
 800146e:	687b      	ldr	r3, [r7, #4]
 8001470:	68fa      	ldr	r2, [r7, #12]
 8001472:	60da      	str	r2, [r3, #12]

        uart->CR1 |= USART_CR1_TE | USART_CR1_RE;
 8001474:	687b      	ldr	r3, [r7, #4]
 8001476:	681b      	ldr	r3, [r3, #0]
 8001478:	220c      	movs	r2, #12
 800147a:	431a      	orrs	r2, r3
 800147c:	687b      	ldr	r3, [r7, #4]
 800147e:	601a      	str	r2, [r3, #0]
        uart->CR1 |= USART_CR1_UE;
 8001480:	687b      	ldr	r3, [r7, #4]
 8001482:	681b      	ldr	r3, [r3, #0]
 8001484:	2201      	movs	r2, #1
 8001486:	431a      	orrs	r2, r3
 8001488:	687b      	ldr	r3, [r7, #4]
 800148a:	601a      	str	r2, [r3, #0]

        (void)uart->ISR;
 800148c:	687b      	ldr	r3, [r7, #4]
 800148e:	69db      	ldr	r3, [r3, #28]
    }
 8001490:	46c0      	nop			@ (mov r8, r8)
 8001492:	46bd      	mov	sp, r7
 8001494:	b004      	add	sp, #16
 8001496:	bd80      	pop	{r7, pc}
 8001498:	02dc6c00 	.word	0x02dc6c00

0800149c <_ZN4Uart4initEm>:
}

namespace Uart
{
    void init(uint32_t baud)
    {
 800149c:	b580      	push	{r7, lr}
 800149e:	b082      	sub	sp, #8
 80014a0:	af00      	add	r7, sp, #0
 80014a2:	6078      	str	r0, [r7, #4]
        configureUartPinsAf_(BoardPins::UART_PORT, BoardPins::UART_TX_PIN, BoardPins::UART_RX_PIN);
 80014a4:	2380      	movs	r3, #128	@ 0x80
 80014a6:	00da      	lsls	r2, r3, #3
 80014a8:	2380      	movs	r3, #128	@ 0x80
 80014aa:	0099      	lsls	r1, r3, #2
 80014ac:	2390      	movs	r3, #144	@ 0x90
 80014ae:	05db      	lsls	r3, r3, #23
 80014b0:	0018      	movs	r0, r3
 80014b2:	f7ff fef3 	bl	800129c <_ZN12_GLOBAL__N_120configureUartPinsAf_EP12GPIO_TypeDeftt>
        configureUart_(BoardPins::UART, baud);
 80014b6:	687b      	ldr	r3, [r7, #4]
 80014b8:	4a04      	ldr	r2, [pc, #16]	@ (80014cc <_ZN4Uart4initEm+0x30>)
 80014ba:	0019      	movs	r1, r3
 80014bc:	0010      	movs	r0, r2
 80014be:	f7ff ffb9 	bl	8001434 <_ZN12_GLOBAL__N_114configureUart_EP13USART_TypeDefm>
    }
 80014c2:	46c0      	nop			@ (mov r8, r8)
 80014c4:	46bd      	mov	sp, r7
 80014c6:	b002      	add	sp, #8
 80014c8:	bd80      	pop	{r7, pc}
 80014ca:	46c0      	nop			@ (mov r8, r8)
 80014cc:	40013800 	.word	0x40013800

080014d0 <_ZN4Uart9writeByteEh>:

    void writeByte(uint8_t b)
    {
 80014d0:	b580      	push	{r7, lr}
 80014d2:	b082      	sub	sp, #8
 80014d4:	af00      	add	r7, sp, #0
 80014d6:	0002      	movs	r2, r0
 80014d8:	1dfb      	adds	r3, r7, #7
 80014da:	701a      	strb	r2, [r3, #0]
        while ((BoardPins::UART->ISR & USART_ISR_TXE) == 0) {}
 80014dc:	46c0      	nop			@ (mov r8, r8)
 80014de:	4b09      	ldr	r3, [pc, #36]	@ (8001504 <_ZN4Uart9writeByteEh+0x34>)
 80014e0:	69db      	ldr	r3, [r3, #28]
 80014e2:	2280      	movs	r2, #128	@ 0x80
 80014e4:	4013      	ands	r3, r2
 80014e6:	425a      	negs	r2, r3
 80014e8:	4153      	adcs	r3, r2
 80014ea:	b2db      	uxtb	r3, r3
 80014ec:	2b00      	cmp	r3, #0
 80014ee:	d1f6      	bne.n	80014de <_ZN4Uart9writeByteEh+0xe>
        BoardPins::UART->TDR = b;
 80014f0:	4a04      	ldr	r2, [pc, #16]	@ (8001504 <_ZN4Uart9writeByteEh+0x34>)
 80014f2:	1dfb      	adds	r3, r7, #7
 80014f4:	781b      	ldrb	r3, [r3, #0]
 80014f6:	b29b      	uxth	r3, r3
 80014f8:	8513      	strh	r3, [r2, #40]	@ 0x28
    }
 80014fa:	46c0      	nop			@ (mov r8, r8)
 80014fc:	46bd      	mov	sp, r7
 80014fe:	b002      	add	sp, #8
 8001500:	bd80      	pop	{r7, pc}
 8001502:	46c0      	nop			@ (mov r8, r8)
 8001504:	40013800 	.word	0x40013800

08001508 <_ZN4Uart5writeEPKc>:

    void write(const char* s)
    {
 8001508:	b580      	push	{r7, lr}
 800150a:	b082      	sub	sp, #8
 800150c:	af00      	add	r7, sp, #0
 800150e:	6078      	str	r0, [r7, #4]
        while (*s)
 8001510:	e00e      	b.n	8001530 <_ZN4Uart5writeEPKc+0x28>
        {
            if (*s == '\n') writeByte('\r');
 8001512:	687b      	ldr	r3, [r7, #4]
 8001514:	781b      	ldrb	r3, [r3, #0]
 8001516:	2b0a      	cmp	r3, #10
 8001518:	d102      	bne.n	8001520 <_ZN4Uart5writeEPKc+0x18>
 800151a:	200d      	movs	r0, #13
 800151c:	f7ff ffd8 	bl	80014d0 <_ZN4Uart9writeByteEh>
            writeByte(static_cast<uint8_t>(*s));
 8001520:	687b      	ldr	r3, [r7, #4]
 8001522:	781b      	ldrb	r3, [r3, #0]
 8001524:	0018      	movs	r0, r3
 8001526:	f7ff ffd3 	bl	80014d0 <_ZN4Uart9writeByteEh>
            ++s;
 800152a:	687b      	ldr	r3, [r7, #4]
 800152c:	3301      	adds	r3, #1
 800152e:	607b      	str	r3, [r7, #4]
        while (*s)
 8001530:	687b      	ldr	r3, [r7, #4]
 8001532:	781b      	ldrb	r3, [r3, #0]
 8001534:	2b00      	cmp	r3, #0
 8001536:	d1ec      	bne.n	8001512 <_ZN4Uart5writeEPKc+0xa>
        }
    }
 8001538:	46c0      	nop			@ (mov r8, r8)
 800153a:	46c0      	nop			@ (mov r8, r8)
 800153c:	46bd      	mov	sp, r7
 800153e:	b002      	add	sp, #8
 8001540:	bd80      	pop	{r7, pc}
	...

08001544 <_ZN4Uart8readByteERh>:


    bool readByte(uint8_t& out)
    {
 8001544:	b580      	push	{r7, lr}
 8001546:	b086      	sub	sp, #24
 8001548:	af00      	add	r7, sp, #0
 800154a:	6078      	str	r0, [r7, #4]
        USART_TypeDef* u = BoardPins::UART;
 800154c:	4b15      	ldr	r3, [pc, #84]	@ (80015a4 <_ZN4Uart8readByteERh+0x60>)
 800154e:	617b      	str	r3, [r7, #20]


        const uint32_t isr = u->ISR;
 8001550:	697b      	ldr	r3, [r7, #20]
 8001552:	69db      	ldr	r3, [r3, #28]
 8001554:	613b      	str	r3, [r7, #16]
        if (isr & (USART_ISR_ORE | USART_ISR_FE | USART_ISR_NE | USART_ISR_PE))
 8001556:	693b      	ldr	r3, [r7, #16]
 8001558:	220f      	movs	r2, #15
 800155a:	4013      	ands	r3, r2
 800155c:	d00b      	beq.n	8001576 <_ZN4Uart8readByteERh+0x32>
        {

            volatile uint8_t dummy = static_cast<uint8_t>(u->RDR);
 800155e:	697b      	ldr	r3, [r7, #20]
 8001560:	8c9b      	ldrh	r3, [r3, #36]	@ 0x24
 8001562:	b29b      	uxth	r3, r3
 8001564:	b2da      	uxtb	r2, r3
 8001566:	210f      	movs	r1, #15
 8001568:	187b      	adds	r3, r7, r1
 800156a:	701a      	strb	r2, [r3, #0]
            (void)dummy;
 800156c:	187b      	adds	r3, r7, r1
 800156e:	781b      	ldrb	r3, [r3, #0]

            u->ICR = (USART_ICR_ORECF | USART_ICR_FECF | USART_ICR_NCF | USART_ICR_PECF);
 8001570:	697b      	ldr	r3, [r7, #20]
 8001572:	220f      	movs	r2, #15
 8001574:	621a      	str	r2, [r3, #32]
        }

        if (u->ISR & USART_ISR_RXNE)
 8001576:	697b      	ldr	r3, [r7, #20]
 8001578:	69db      	ldr	r3, [r3, #28]
 800157a:	2220      	movs	r2, #32
 800157c:	4013      	ands	r3, r2
 800157e:	1e5a      	subs	r2, r3, #1
 8001580:	4193      	sbcs	r3, r2
 8001582:	b2db      	uxtb	r3, r3
 8001584:	2b00      	cmp	r3, #0
 8001586:	d007      	beq.n	8001598 <_ZN4Uart8readByteERh+0x54>
        {
            out = static_cast<uint8_t>(u->RDR);
 8001588:	697b      	ldr	r3, [r7, #20]
 800158a:	8c9b      	ldrh	r3, [r3, #36]	@ 0x24
 800158c:	b29b      	uxth	r3, r3
 800158e:	b2da      	uxtb	r2, r3
 8001590:	687b      	ldr	r3, [r7, #4]
 8001592:	701a      	strb	r2, [r3, #0]
            return true;
 8001594:	2301      	movs	r3, #1
 8001596:	e000      	b.n	800159a <_ZN4Uart8readByteERh+0x56>
        }
        return false;
 8001598:	2300      	movs	r3, #0
    }
 800159a:	0018      	movs	r0, r3
 800159c:	46bd      	mov	sp, r7
 800159e:	b006      	add	sp, #24
 80015a0:	bd80      	pop	{r7, pc}
 80015a2:	46c0      	nop			@ (mov r8, r8)
 80015a4:	40013800 	.word	0x40013800

080015a8 <_ZL8setSpeedh>:

static uint32_t loopMs = 0;
static constexpr uint32_t SENSOR_PERIOD_MS = 200;

static void setSpeed(uint8_t pct)
{
 80015a8:	b590      	push	{r4, r7, lr}
 80015aa:	b089      	sub	sp, #36	@ 0x24
 80015ac:	af00      	add	r7, sp, #0
 80015ae:	0002      	movs	r2, r0
 80015b0:	1dfb      	adds	r3, r7, #7
 80015b2:	701a      	strb	r2, [r3, #0]
    if (pct > 100) pct = 100;
 80015b4:	1dfb      	adds	r3, r7, #7
 80015b6:	781b      	ldrb	r3, [r3, #0]
 80015b8:	2b64      	cmp	r3, #100	@ 0x64
 80015ba:	d902      	bls.n	80015c2 <_ZL8setSpeedh+0x1a>
 80015bc:	1dfb      	adds	r3, r7, #7
 80015be:	2264      	movs	r2, #100	@ 0x64
 80015c0:	701a      	strb	r2, [r3, #0]
    speedPct = pct;
 80015c2:	4b0d      	ldr	r3, [pc, #52]	@ (80015f8 <_ZL8setSpeedh+0x50>)
 80015c4:	1dfa      	adds	r2, r7, #7
 80015c6:	7812      	ldrb	r2, [r2, #0]
 80015c8:	701a      	strb	r2, [r3, #0]
    motor.setSpeedPercent(speedPct);
 80015ca:	4b0b      	ldr	r3, [pc, #44]	@ (80015f8 <_ZL8setSpeedh+0x50>)
 80015cc:	781a      	ldrb	r2, [r3, #0]
 80015ce:	4b0b      	ldr	r3, [pc, #44]	@ (80015fc <_ZL8setSpeedh+0x54>)
 80015d0:	0011      	movs	r1, r2
 80015d2:	0018      	movs	r0, r3
 80015d4:	f7ff f934 	bl	8000840 <_ZN11MotorDriver15setSpeedPercentEh>

    char buf[24];
    std::snprintf(buf, sizeof(buf), "SPD=%u\n", (unsigned)speedPct);
 80015d8:	4b07      	ldr	r3, [pc, #28]	@ (80015f8 <_ZL8setSpeedh+0x50>)
 80015da:	781b      	ldrb	r3, [r3, #0]
 80015dc:	4a08      	ldr	r2, [pc, #32]	@ (8001600 <_ZL8setSpeedh+0x58>)
 80015de:	2408      	movs	r4, #8
 80015e0:	1938      	adds	r0, r7, r4
 80015e2:	2118      	movs	r1, #24
 80015e4:	f000 fe30 	bl	8002248 <sniprintf>
    Uart::write(buf);
 80015e8:	193b      	adds	r3, r7, r4
 80015ea:	0018      	movs	r0, r3
 80015ec:	f7ff ff8c 	bl	8001508 <_ZN4Uart5writeEPKc>
}
 80015f0:	46c0      	nop			@ (mov r8, r8)
 80015f2:	46bd      	mov	sp, r7
 80015f4:	b009      	add	sp, #36	@ 0x24
 80015f6:	bd90      	pop	{r4, r7, pc}
 80015f8:	20000003 	.word	0x20000003
 80015fc:	20000098 	.word	0x20000098
 8001600:	08002bb4 	.word	0x08002bb4

08001604 <_ZL7stopAllv>:

static void stopAll()
{
 8001604:	b580      	push	{r7, lr}
 8001606:	af00      	add	r7, sp, #0
    motor.stop();
 8001608:	4b05      	ldr	r3, [pc, #20]	@ (8001620 <_ZL7stopAllv+0x1c>)
 800160a:	0018      	movs	r0, r3
 800160c:	f7ff f948 	bl	80008a0 <_ZN11MotorDriver4stopEv>
    Uart::write("M=STOP\n");
 8001610:	4b04      	ldr	r3, [pc, #16]	@ (8001624 <_ZL7stopAllv+0x20>)
 8001612:	0018      	movs	r0, r3
 8001614:	f7ff ff78 	bl	8001508 <_ZN4Uart5writeEPKc>
}
 8001618:	46c0      	nop			@ (mov r8, r8)
 800161a:	46bd      	mov	sp, r7
 800161c:	bd80      	pop	{r7, pc}
 800161e:	46c0      	nop			@ (mov r8, r8)
 8001620:	20000098 	.word	0x20000098
 8001624:	08002bbc 	.word	0x08002bbc

08001628 <_ZL13sendDistancesv>:

static void sendDistances()
{
 8001628:	b5b0      	push	{r4, r5, r7, lr}
 800162a:	b096      	sub	sp, #88	@ 0x58
 800162c:	af02      	add	r7, sp, #8
    uint32_t f = 0, r = 0;
 800162e:	2300      	movs	r3, #0
 8001630:	64bb      	str	r3, [r7, #72]	@ 0x48
 8001632:	2300      	movs	r3, #0
 8001634:	647b      	str	r3, [r7, #68]	@ 0x44
    const bool okF = usFront.measureOnce(f);
 8001636:	254f      	movs	r5, #79	@ 0x4f
 8001638:	197c      	adds	r4, r7, r5
 800163a:	2348      	movs	r3, #72	@ 0x48
 800163c:	18fa      	adds	r2, r7, r3
 800163e:	4b1a      	ldr	r3, [pc, #104]	@ (80016a8 <_ZL13sendDistancesv+0x80>)
 8001640:	0011      	movs	r1, r2
 8001642:	0018      	movs	r0, r3
 8001644:	f000 fdac 	bl	80021a0 <_ZN16UltrasonicSensor11measureOnceERm>
 8001648:	0003      	movs	r3, r0
 800164a:	7023      	strb	r3, [r4, #0]
    const bool okR = usRear.measureOnce(r);
 800164c:	234e      	movs	r3, #78	@ 0x4e
 800164e:	18fc      	adds	r4, r7, r3
 8001650:	2344      	movs	r3, #68	@ 0x44
 8001652:	18fa      	adds	r2, r7, r3
 8001654:	4b15      	ldr	r3, [pc, #84]	@ (80016ac <_ZL13sendDistancesv+0x84>)
 8001656:	0011      	movs	r1, r2
 8001658:	0018      	movs	r0, r3
 800165a:	f000 fda1 	bl	80021a0 <_ZN16UltrasonicSensor11measureOnceERm>
 800165e:	0003      	movs	r3, r0
 8001660:	7023      	strb	r3, [r4, #0]

    char buf[64];
    std::snprintf(buf, sizeof(buf),
 8001662:	197b      	adds	r3, r7, r5
 8001664:	781b      	ldrb	r3, [r3, #0]
 8001666:	2b00      	cmp	r3, #0
 8001668:	d002      	beq.n	8001670 <_ZL13sendDistancesv+0x48>
                  "D F=%ld R=%ld\n",
                  okF ? (long)f : -1L,
 800166a:	6cbb      	ldr	r3, [r7, #72]	@ 0x48
    std::snprintf(buf, sizeof(buf),
 800166c:	001a      	movs	r2, r3
 800166e:	e001      	b.n	8001674 <_ZL13sendDistancesv+0x4c>
 8001670:	2301      	movs	r3, #1
 8001672:	425a      	negs	r2, r3
 8001674:	234e      	movs	r3, #78	@ 0x4e
 8001676:	18fb      	adds	r3, r7, r3
 8001678:	781b      	ldrb	r3, [r3, #0]
 800167a:	2b00      	cmp	r3, #0
 800167c:	d001      	beq.n	8001682 <_ZL13sendDistancesv+0x5a>
                  okR ? (long)r : -1L);
 800167e:	6c7b      	ldr	r3, [r7, #68]	@ 0x44
 8001680:	e001      	b.n	8001686 <_ZL13sendDistancesv+0x5e>
    std::snprintf(buf, sizeof(buf),
 8001682:	2301      	movs	r3, #1
 8001684:	425b      	negs	r3, r3
 8001686:	490a      	ldr	r1, [pc, #40]	@ (80016b0 <_ZL13sendDistancesv+0x88>)
 8001688:	1d38      	adds	r0, r7, #4
 800168a:	9300      	str	r3, [sp, #0]
 800168c:	0013      	movs	r3, r2
 800168e:	000a      	movs	r2, r1
 8001690:	2140      	movs	r1, #64	@ 0x40
 8001692:	f000 fdd9 	bl	8002248 <sniprintf>
    Uart::write(buf);
 8001696:	1d3b      	adds	r3, r7, #4
 8001698:	0018      	movs	r0, r3
 800169a:	f7ff ff35 	bl	8001508 <_ZN4Uart5writeEPKc>
}
 800169e:	46c0      	nop			@ (mov r8, r8)
 80016a0:	46bd      	mov	sp, r7
 80016a2:	b014      	add	sp, #80	@ 0x50
 80016a4:	bdb0      	pop	{r4, r5, r7, pc}
 80016a6:	46c0      	nop			@ (mov r8, r8)
 80016a8:	2000009c 	.word	0x2000009c
 80016ac:	200000b0 	.word	0x200000b0
 80016b0:	08002bc4 	.word	0x08002bc4

080016b4 <_ZL14autopilotStop_v>:

static uint8_t manualSpeedPct = 80;
static uint8_t autoSpeedPct = 40;

static void autopilotStop_()
{
 80016b4:	b580      	push	{r7, lr}
 80016b6:	af00      	add	r7, sp, #0
    if (autoActive)
 80016b8:	4b0e      	ldr	r3, [pc, #56]	@ (80016f4 <_ZL14autopilotStop_v+0x40>)
 80016ba:	781b      	ldrb	r3, [r3, #0]
 80016bc:	2b00      	cmp	r3, #0
 80016be:	d015      	beq.n	80016ec <_ZL14autopilotStop_v+0x38>
    {
        autoActive = false;
 80016c0:	4b0c      	ldr	r3, [pc, #48]	@ (80016f4 <_ZL14autopilotStop_v+0x40>)
 80016c2:	2200      	movs	r2, #0
 80016c4:	701a      	strb	r2, [r3, #0]
        params.autoModeEnabled = false;
 80016c6:	4b0c      	ldr	r3, [pc, #48]	@ (80016f8 <_ZL14autopilotStop_v+0x44>)
 80016c8:	2200      	movs	r2, #0
 80016ca:	715a      	strb	r2, [r3, #5]
        autonomy.reset();
 80016cc:	4b0b      	ldr	r3, [pc, #44]	@ (80016fc <_ZL14autopilotStop_v+0x48>)
 80016ce:	0018      	movs	r0, r3
 80016d0:	f7fe fdc6 	bl	8000260 <_ZN18AutonomyController5resetEv>
        motor.stop();
 80016d4:	4b0a      	ldr	r3, [pc, #40]	@ (8001700 <_ZL14autopilotStop_v+0x4c>)
 80016d6:	0018      	movs	r0, r3
 80016d8:	f7ff f8e2 	bl	80008a0 <_ZN11MotorDriver4stopEv>
        Uart::write("AP=0\n");
 80016dc:	4b09      	ldr	r3, [pc, #36]	@ (8001704 <_ZL14autopilotStop_v+0x50>)
 80016de:	0018      	movs	r0, r3
 80016e0:	f7ff ff12 	bl	8001508 <_ZN4Uart5writeEPKc>
        Uart::write("M=STOP\n");
 80016e4:	4b08      	ldr	r3, [pc, #32]	@ (8001708 <_ZL14autopilotStop_v+0x54>)
 80016e6:	0018      	movs	r0, r3
 80016e8:	f7ff ff0e 	bl	8001508 <_ZN4Uart5writeEPKc>
    }
}
 80016ec:	46c0      	nop			@ (mov r8, r8)
 80016ee:	46bd      	mov	sp, r7
 80016f0:	bd80      	pop	{r7, pc}
 80016f2:	46c0      	nop			@ (mov r8, r8)
 80016f4:	200000e5 	.word	0x200000e5
 80016f8:	20000004 	.word	0x20000004
 80016fc:	200000d0 	.word	0x200000d0
 8001700:	20000098 	.word	0x20000098
 8001704:	08002bd4 	.word	0x08002bd4
 8001708:	08002bbc 	.word	0x08002bbc

0800170c <_ZL15autopilotStart_v>:

static void autopilotStart_()
{
 800170c:	b580      	push	{r7, lr}
 800170e:	af00      	add	r7, sp, #0
    if (!autoActive)
 8001710:	4b12      	ldr	r3, [pc, #72]	@ (800175c <_ZL15autopilotStart_v+0x50>)
 8001712:	781b      	ldrb	r3, [r3, #0]
 8001714:	2201      	movs	r2, #1
 8001716:	4053      	eors	r3, r2
 8001718:	b2db      	uxtb	r3, r3
 800171a:	2b00      	cmp	r3, #0
 800171c:	d01a      	beq.n	8001754 <_ZL15autopilotStart_v+0x48>
    {
        autoActive = true;
 800171e:	4b0f      	ldr	r3, [pc, #60]	@ (800175c <_ZL15autopilotStart_v+0x50>)
 8001720:	2201      	movs	r2, #1
 8001722:	701a      	strb	r2, [r3, #0]
        params.autoModeEnabled = true;
 8001724:	4b0e      	ldr	r3, [pc, #56]	@ (8001760 <_ZL15autopilotStart_v+0x54>)
 8001726:	2201      	movs	r2, #1
 8001728:	715a      	strb	r2, [r3, #5]
        autonomy.reset();
 800172a:	4b0e      	ldr	r3, [pc, #56]	@ (8001764 <_ZL15autopilotStart_v+0x58>)
 800172c:	0018      	movs	r0, r3
 800172e:	f7fe fd97 	bl	8000260 <_ZN18AutonomyController5resetEv>

        motor.setSpeedPercent(autoSpeedPct);
 8001732:	4b0d      	ldr	r3, [pc, #52]	@ (8001768 <_ZL15autopilotStart_v+0x5c>)
 8001734:	781a      	ldrb	r2, [r3, #0]
 8001736:	4b0d      	ldr	r3, [pc, #52]	@ (800176c <_ZL15autopilotStart_v+0x60>)
 8001738:	0011      	movs	r1, r2
 800173a:	0018      	movs	r0, r3
 800173c:	f7ff f880 	bl	8000840 <_ZN11MotorDriver15setSpeedPercentEh>

        nextAutoTickMs = loopMs + AUTO_TICK_MS;
 8001740:	4b0b      	ldr	r3, [pc, #44]	@ (8001770 <_ZL15autopilotStart_v+0x64>)
 8001742:	681b      	ldr	r3, [r3, #0]
 8001744:	3364      	adds	r3, #100	@ 0x64
 8001746:	001a      	movs	r2, r3
 8001748:	4b0a      	ldr	r3, [pc, #40]	@ (8001774 <_ZL15autopilotStart_v+0x68>)
 800174a:	601a      	str	r2, [r3, #0]
        Uart::write("AP=1\n");
 800174c:	4b0a      	ldr	r3, [pc, #40]	@ (8001778 <_ZL15autopilotStart_v+0x6c>)
 800174e:	0018      	movs	r0, r3
 8001750:	f7ff feda 	bl	8001508 <_ZN4Uart5writeEPKc>
    }
}
 8001754:	46c0      	nop			@ (mov r8, r8)
 8001756:	46bd      	mov	sp, r7
 8001758:	bd80      	pop	{r7, pc}
 800175a:	46c0      	nop			@ (mov r8, r8)
 800175c:	200000e5 	.word	0x200000e5
 8001760:	20000004 	.word	0x20000004
 8001764:	200000d0 	.word	0x200000d0
 8001768:	20000021 	.word	0x20000021
 800176c:	20000098 	.word	0x20000098
 8001770:	200000cc 	.word	0x200000cc
 8001774:	200000ec 	.word	0x200000ec
 8001778:	08002bdc 	.word	0x08002bdc

0800177c <_ZL20applyCommandToMotor_RK7Command>:

static void applyCommandToMotor_(const Command& c)
{
 800177c:	b580      	push	{r7, lr}
 800177e:	b082      	sub	sp, #8
 8001780:	af00      	add	r7, sp, #0
 8001782:	6078      	str	r0, [r7, #4]
    switch (c.type)
 8001784:	687b      	ldr	r3, [r7, #4]
 8001786:	781b      	ldrb	r3, [r3, #0]
 8001788:	2b04      	cmp	r3, #4
 800178a:	d023      	beq.n	80017d4 <_ZL20applyCommandToMotor_RK7Command+0x58>
 800178c:	d82b      	bhi.n	80017e6 <_ZL20applyCommandToMotor_RK7Command+0x6a>
 800178e:	2b03      	cmp	r3, #3
 8001790:	d017      	beq.n	80017c2 <_ZL20applyCommandToMotor_RK7Command+0x46>
 8001792:	d828      	bhi.n	80017e6 <_ZL20applyCommandToMotor_RK7Command+0x6a>
 8001794:	2b01      	cmp	r3, #1
 8001796:	d002      	beq.n	800179e <_ZL20applyCommandToMotor_RK7Command+0x22>
 8001798:	2b02      	cmp	r3, #2
 800179a:	d009      	beq.n	80017b0 <_ZL20applyCommandToMotor_RK7Command+0x34>
 800179c:	e023      	b.n	80017e6 <_ZL20applyCommandToMotor_RK7Command+0x6a>
    {
        case CommandType::Forward:
            motor.forward();
 800179e:	4b18      	ldr	r3, [pc, #96]	@ (8001800 <_ZL20applyCommandToMotor_RK7Command+0x84>)
 80017a0:	0018      	movs	r0, r3
 80017a2:	f7ff f93f 	bl	8000a24 <_ZN11MotorDriver7forwardEv>
            Uart::write("M=F\n");
 80017a6:	4b17      	ldr	r3, [pc, #92]	@ (8001804 <_ZL20applyCommandToMotor_RK7Command+0x88>)
 80017a8:	0018      	movs	r0, r3
 80017aa:	f7ff fead 	bl	8001508 <_ZN4Uart5writeEPKc>
            break;
 80017ae:	e023      	b.n	80017f8 <_ZL20applyCommandToMotor_RK7Command+0x7c>

        case CommandType::Backward:
            motor.back();
 80017b0:	4b13      	ldr	r3, [pc, #76]	@ (8001800 <_ZL20applyCommandToMotor_RK7Command+0x84>)
 80017b2:	0018      	movs	r0, r3
 80017b4:	f7ff f946 	bl	8000a44 <_ZN11MotorDriver4backEv>
            Uart::write("M=B\n");
 80017b8:	4b13      	ldr	r3, [pc, #76]	@ (8001808 <_ZL20applyCommandToMotor_RK7Command+0x8c>)
 80017ba:	0018      	movs	r0, r3
 80017bc:	f7ff fea4 	bl	8001508 <_ZN4Uart5writeEPKc>
            break;
 80017c0:	e01a      	b.n	80017f8 <_ZL20applyCommandToMotor_RK7Command+0x7c>

        case CommandType::TurnLeft:
            motor.spinLeft();
 80017c2:	4b0f      	ldr	r3, [pc, #60]	@ (8001800 <_ZL20applyCommandToMotor_RK7Command+0x84>)
 80017c4:	0018      	movs	r0, r3
 80017c6:	f7ff f95d 	bl	8000a84 <_ZN11MotorDriver8spinLeftEv>
            Uart::write("M=L\n");
 80017ca:	4b10      	ldr	r3, [pc, #64]	@ (800180c <_ZL20applyCommandToMotor_RK7Command+0x90>)
 80017cc:	0018      	movs	r0, r3
 80017ce:	f7ff fe9b 	bl	8001508 <_ZN4Uart5writeEPKc>
            break;
 80017d2:	e011      	b.n	80017f8 <_ZL20applyCommandToMotor_RK7Command+0x7c>

        case CommandType::TurnRight:
            motor.spinRight();
 80017d4:	4b0a      	ldr	r3, [pc, #40]	@ (8001800 <_ZL20applyCommandToMotor_RK7Command+0x84>)
 80017d6:	0018      	movs	r0, r3
 80017d8:	f7ff f944 	bl	8000a64 <_ZN11MotorDriver9spinRightEv>
            Uart::write("M=R\n");
 80017dc:	4b0c      	ldr	r3, [pc, #48]	@ (8001810 <_ZL20applyCommandToMotor_RK7Command+0x94>)
 80017de:	0018      	movs	r0, r3
 80017e0:	f7ff fe92 	bl	8001508 <_ZN4Uart5writeEPKc>
            break;
 80017e4:	e008      	b.n	80017f8 <_ZL20applyCommandToMotor_RK7Command+0x7c>

        case CommandType::Stop:
        default:
            motor.stop();
 80017e6:	4b06      	ldr	r3, [pc, #24]	@ (8001800 <_ZL20applyCommandToMotor_RK7Command+0x84>)
 80017e8:	0018      	movs	r0, r3
 80017ea:	f7ff f859 	bl	80008a0 <_ZN11MotorDriver4stopEv>
            Uart::write("M=STOP\n");
 80017ee:	4b09      	ldr	r3, [pc, #36]	@ (8001814 <_ZL20applyCommandToMotor_RK7Command+0x98>)
 80017f0:	0018      	movs	r0, r3
 80017f2:	f7ff fe89 	bl	8001508 <_ZN4Uart5writeEPKc>
            break;
 80017f6:	46c0      	nop			@ (mov r8, r8)
    }
}
 80017f8:	46c0      	nop			@ (mov r8, r8)
 80017fa:	46bd      	mov	sp, r7
 80017fc:	b002      	add	sp, #8
 80017fe:	bd80      	pop	{r7, pc}
 8001800:	20000098 	.word	0x20000098
 8001804:	08002be4 	.word	0x08002be4
 8001808:	08002bec 	.word	0x08002bec
 800180c:	08002bf4 	.word	0x08002bf4
 8001810:	08002bfc 	.word	0x08002bfc
 8001814:	08002bbc 	.word	0x08002bbc

08001818 <_ZL10handleByteh>:

static void handleByte(uint8_t b)
{
 8001818:	b580      	push	{r7, lr}
 800181a:	b084      	sub	sp, #16
 800181c:	af00      	add	r7, sp, #0
 800181e:	0002      	movs	r2, r0
 8001820:	1dfb      	adds	r3, r7, #7
 8001822:	701a      	strb	r2, [r3, #0]
    if      (b == 'H') { lights.setHeadlight(true);  Uart::write("HL=1\n"); return; }
 8001824:	1dfb      	adds	r3, r7, #7
 8001826:	781b      	ldrb	r3, [r3, #0]
 8001828:	2b48      	cmp	r3, #72	@ 0x48
 800182a:	d109      	bne.n	8001840 <_ZL10handleByteh+0x28>
 800182c:	4b8c      	ldr	r3, [pc, #560]	@ (8001a60 <_ZL10handleByteh+0x248>)
 800182e:	2101      	movs	r1, #1
 8001830:	0018      	movs	r0, r3
 8001832:	f7fe fe3a 	bl	80004aa <_ZN6Lights12setHeadlightEb>
 8001836:	4b8b      	ldr	r3, [pc, #556]	@ (8001a64 <_ZL10handleByteh+0x24c>)
 8001838:	0018      	movs	r0, r3
 800183a:	f7ff fe65 	bl	8001508 <_ZN4Uart5writeEPKc>
 800183e:	e10b      	b.n	8001a58 <_ZL10handleByteh+0x240>
    else if (b == 'h') { lights.setHeadlight(false); Uart::write("HL=0\n"); return; }
 8001840:	1dfb      	adds	r3, r7, #7
 8001842:	781b      	ldrb	r3, [r3, #0]
 8001844:	2b68      	cmp	r3, #104	@ 0x68
 8001846:	d109      	bne.n	800185c <_ZL10handleByteh+0x44>
 8001848:	4b85      	ldr	r3, [pc, #532]	@ (8001a60 <_ZL10handleByteh+0x248>)
 800184a:	2100      	movs	r1, #0
 800184c:	0018      	movs	r0, r3
 800184e:	f7fe fe2c 	bl	80004aa <_ZN6Lights12setHeadlightEb>
 8001852:	4b85      	ldr	r3, [pc, #532]	@ (8001a68 <_ZL10handleByteh+0x250>)
 8001854:	0018      	movs	r0, r3
 8001856:	f7ff fe57 	bl	8001508 <_ZN4Uart5writeEPKc>
 800185a:	e0fd      	b.n	8001a58 <_ZL10handleByteh+0x240>
    else if (b == 'S') { lights.setStoplight(true);  Uart::write("SL=1\n"); return; }
 800185c:	1dfb      	adds	r3, r7, #7
 800185e:	781b      	ldrb	r3, [r3, #0]
 8001860:	2b53      	cmp	r3, #83	@ 0x53
 8001862:	d109      	bne.n	8001878 <_ZL10handleByteh+0x60>
 8001864:	4b7e      	ldr	r3, [pc, #504]	@ (8001a60 <_ZL10handleByteh+0x248>)
 8001866:	2101      	movs	r1, #1
 8001868:	0018      	movs	r0, r3
 800186a:	f7fe fe38 	bl	80004de <_ZN6Lights12setStoplightEb>
 800186e:	4b7f      	ldr	r3, [pc, #508]	@ (8001a6c <_ZL10handleByteh+0x254>)
 8001870:	0018      	movs	r0, r3
 8001872:	f7ff fe49 	bl	8001508 <_ZN4Uart5writeEPKc>
 8001876:	e0ef      	b.n	8001a58 <_ZL10handleByteh+0x240>
    else if (b == 's') { lights.setStoplight(false); Uart::write("SL=0\n"); return; }
 8001878:	1dfb      	adds	r3, r7, #7
 800187a:	781b      	ldrb	r3, [r3, #0]
 800187c:	2b73      	cmp	r3, #115	@ 0x73
 800187e:	d109      	bne.n	8001894 <_ZL10handleByteh+0x7c>
 8001880:	4b77      	ldr	r3, [pc, #476]	@ (8001a60 <_ZL10handleByteh+0x248>)
 8001882:	2100      	movs	r1, #0
 8001884:	0018      	movs	r0, r3
 8001886:	f7fe fe2a 	bl	80004de <_ZN6Lights12setStoplightEb>
 800188a:	4b79      	ldr	r3, [pc, #484]	@ (8001a70 <_ZL10handleByteh+0x258>)
 800188c:	0018      	movs	r0, r3
 800188e:	f7ff fe3b 	bl	8001508 <_ZN4Uart5writeEPKc>
 8001892:	e0e1      	b.n	8001a58 <_ZL10handleByteh+0x240>

    if (b >= '0' && b <= '9')
 8001894:	1dfb      	adds	r3, r7, #7
 8001896:	781b      	ldrb	r3, [r3, #0]
 8001898:	2b2f      	cmp	r3, #47	@ 0x2f
 800189a:	d920      	bls.n	80018de <_ZL10handleByteh+0xc6>
 800189c:	1dfb      	adds	r3, r7, #7
 800189e:	781b      	ldrb	r3, [r3, #0]
 80018a0:	2b39      	cmp	r3, #57	@ 0x39
 80018a2:	d81c      	bhi.n	80018de <_ZL10handleByteh+0xc6>
    {
        const uint8_t pct = (uint8_t)(b - '0') * 10;
 80018a4:	1dfb      	adds	r3, r7, #7
 80018a6:	781b      	ldrb	r3, [r3, #0]
 80018a8:	1c1a      	adds	r2, r3, #0
 80018aa:	0092      	lsls	r2, r2, #2
 80018ac:	18d3      	adds	r3, r2, r3
 80018ae:	18db      	adds	r3, r3, r3
 80018b0:	b2da      	uxtb	r2, r3
 80018b2:	210f      	movs	r1, #15
 80018b4:	187b      	adds	r3, r7, r1
 80018b6:	3220      	adds	r2, #32
 80018b8:	701a      	strb	r2, [r3, #0]
        manualSpeedPct = pct;
 80018ba:	4b6e      	ldr	r3, [pc, #440]	@ (8001a74 <_ZL10handleByteh+0x25c>)
 80018bc:	187a      	adds	r2, r7, r1
 80018be:	7812      	ldrb	r2, [r2, #0]
 80018c0:	701a      	strb	r2, [r3, #0]
        if (!autoActive)
 80018c2:	4b6d      	ldr	r3, [pc, #436]	@ (8001a78 <_ZL10handleByteh+0x260>)
 80018c4:	781b      	ldrb	r3, [r3, #0]
 80018c6:	2201      	movs	r2, #1
 80018c8:	4053      	eors	r3, r2
 80018ca:	b2db      	uxtb	r3, r3
 80018cc:	2b00      	cmp	r3, #0
 80018ce:	d100      	bne.n	80018d2 <_ZL10handleByteh+0xba>
 80018d0:	e0bf      	b.n	8001a52 <_ZL10handleByteh+0x23a>
            setSpeed(pct);
 80018d2:	187b      	adds	r3, r7, r1
 80018d4:	781b      	ldrb	r3, [r3, #0]
 80018d6:	0018      	movs	r0, r3
 80018d8:	f7ff fe66 	bl	80015a8 <_ZL8setSpeedh>
        return;
 80018dc:	e0b9      	b.n	8001a52 <_ZL10handleByteh+0x23a>
    }

    if (b == 'A')
 80018de:	1dfb      	adds	r3, r7, #7
 80018e0:	781b      	ldrb	r3, [r3, #0]
 80018e2:	2b41      	cmp	r3, #65	@ 0x41
 80018e4:	d107      	bne.n	80018f6 <_ZL10handleByteh+0xde>
    {
        autoAllowed = true;
 80018e6:	4b65      	ldr	r3, [pc, #404]	@ (8001a7c <_ZL10handleByteh+0x264>)
 80018e8:	2201      	movs	r2, #1
 80018ea:	701a      	strb	r2, [r3, #0]
        Uart::write("AUTO=1\n");
 80018ec:	4b64      	ldr	r3, [pc, #400]	@ (8001a80 <_ZL10handleByteh+0x268>)
 80018ee:	0018      	movs	r0, r3
 80018f0:	f7ff fe0a 	bl	8001508 <_ZN4Uart5writeEPKc>
        return;
 80018f4:	e0b0      	b.n	8001a58 <_ZL10handleByteh+0x240>
    }

    if (b == 'a')
 80018f6:	1dfb      	adds	r3, r7, #7
 80018f8:	781b      	ldrb	r3, [r3, #0]
 80018fa:	2b61      	cmp	r3, #97	@ 0x61
 80018fc:	d112      	bne.n	8001924 <_ZL10handleByteh+0x10c>
    {
        autoAllowed = false;
 80018fe:	4b5f      	ldr	r3, [pc, #380]	@ (8001a7c <_ZL10handleByteh+0x264>)
 8001900:	2200      	movs	r2, #0
 8001902:	701a      	strb	r2, [r3, #0]
        autopilotStop_();
 8001904:	f7ff fed6 	bl	80016b4 <_ZL14autopilotStop_v>
        motor.setSpeedPercent(manualSpeedPct);
 8001908:	4b5a      	ldr	r3, [pc, #360]	@ (8001a74 <_ZL10handleByteh+0x25c>)
 800190a:	781a      	ldrb	r2, [r3, #0]
 800190c:	4b5d      	ldr	r3, [pc, #372]	@ (8001a84 <_ZL10handleByteh+0x26c>)
 800190e:	0011      	movs	r1, r2
 8001910:	0018      	movs	r0, r3
 8001912:	f7fe ff95 	bl	8000840 <_ZN11MotorDriver15setSpeedPercentEh>
        stopAll();
 8001916:	f7ff fe75 	bl	8001604 <_ZL7stopAllv>
        Uart::write("AUTO=0\n");
 800191a:	4b5b      	ldr	r3, [pc, #364]	@ (8001a88 <_ZL10handleByteh+0x270>)
 800191c:	0018      	movs	r0, r3
 800191e:	f7ff fdf3 	bl	8001508 <_ZN4Uart5writeEPKc>
        return;
 8001922:	e099      	b.n	8001a58 <_ZL10handleByteh+0x240>
    }

    if (b == 'F' || b == 'B' || b == 'L' || b == 'R')
 8001924:	1dfb      	adds	r3, r7, #7
 8001926:	781b      	ldrb	r3, [r3, #0]
 8001928:	2b46      	cmp	r3, #70	@ 0x46
 800192a:	d00b      	beq.n	8001944 <_ZL10handleByteh+0x12c>
 800192c:	1dfb      	adds	r3, r7, #7
 800192e:	781b      	ldrb	r3, [r3, #0]
 8001930:	2b42      	cmp	r3, #66	@ 0x42
 8001932:	d007      	beq.n	8001944 <_ZL10handleByteh+0x12c>
 8001934:	1dfb      	adds	r3, r7, #7
 8001936:	781b      	ldrb	r3, [r3, #0]
 8001938:	2b4c      	cmp	r3, #76	@ 0x4c
 800193a:	d003      	beq.n	8001944 <_ZL10handleByteh+0x12c>
 800193c:	1dfb      	adds	r3, r7, #7
 800193e:	781b      	ldrb	r3, [r3, #0]
 8001940:	2b52      	cmp	r3, #82	@ 0x52
 8001942:	d140      	bne.n	80019c6 <_ZL10handleByteh+0x1ae>
    {
        lastManualDriveMs = loopMs;
 8001944:	4b51      	ldr	r3, [pc, #324]	@ (8001a8c <_ZL10handleByteh+0x274>)
 8001946:	681a      	ldr	r2, [r3, #0]
 8001948:	4b51      	ldr	r3, [pc, #324]	@ (8001a90 <_ZL10handleByteh+0x278>)
 800194a:	601a      	str	r2, [r3, #0]

        if (autoActive)
 800194c:	4b4a      	ldr	r3, [pc, #296]	@ (8001a78 <_ZL10handleByteh+0x260>)
 800194e:	781b      	ldrb	r3, [r3, #0]
 8001950:	2b00      	cmp	r3, #0
 8001952:	d008      	beq.n	8001966 <_ZL10handleByteh+0x14e>
        {
            autopilotStop_();
 8001954:	f7ff feae 	bl	80016b4 <_ZL14autopilotStop_v>
            motor.setSpeedPercent(manualSpeedPct);
 8001958:	4b46      	ldr	r3, [pc, #280]	@ (8001a74 <_ZL10handleByteh+0x25c>)
 800195a:	781a      	ldrb	r2, [r3, #0]
 800195c:	4b49      	ldr	r3, [pc, #292]	@ (8001a84 <_ZL10handleByteh+0x26c>)
 800195e:	0011      	movs	r1, r2
 8001960:	0018      	movs	r0, r3
 8001962:	f7fe ff6d 	bl	8000840 <_ZN11MotorDriver15setSpeedPercentEh>
        }

        if      (b == 'F') { motor.forward();   Uart::write("M=F\n"); return; }
 8001966:	1dfb      	adds	r3, r7, #7
 8001968:	781b      	ldrb	r3, [r3, #0]
 800196a:	2b46      	cmp	r3, #70	@ 0x46
 800196c:	d108      	bne.n	8001980 <_ZL10handleByteh+0x168>
 800196e:	4b45      	ldr	r3, [pc, #276]	@ (8001a84 <_ZL10handleByteh+0x26c>)
 8001970:	0018      	movs	r0, r3
 8001972:	f7ff f857 	bl	8000a24 <_ZN11MotorDriver7forwardEv>
 8001976:	4b47      	ldr	r3, [pc, #284]	@ (8001a94 <_ZL10handleByteh+0x27c>)
 8001978:	0018      	movs	r0, r3
 800197a:	f7ff fdc5 	bl	8001508 <_ZN4Uart5writeEPKc>
 800197e:	e06b      	b.n	8001a58 <_ZL10handleByteh+0x240>
        else if (b == 'B') { motor.back();      Uart::write("M=B\n"); return; }
 8001980:	1dfb      	adds	r3, r7, #7
 8001982:	781b      	ldrb	r3, [r3, #0]
 8001984:	2b42      	cmp	r3, #66	@ 0x42
 8001986:	d108      	bne.n	800199a <_ZL10handleByteh+0x182>
 8001988:	4b3e      	ldr	r3, [pc, #248]	@ (8001a84 <_ZL10handleByteh+0x26c>)
 800198a:	0018      	movs	r0, r3
 800198c:	f7ff f85a 	bl	8000a44 <_ZN11MotorDriver4backEv>
 8001990:	4b41      	ldr	r3, [pc, #260]	@ (8001a98 <_ZL10handleByteh+0x280>)
 8001992:	0018      	movs	r0, r3
 8001994:	f7ff fdb8 	bl	8001508 <_ZN4Uart5writeEPKc>
 8001998:	e05e      	b.n	8001a58 <_ZL10handleByteh+0x240>
        else if (b == 'L') { motor.spinLeft();  Uart::write("M=L\n"); return; }
 800199a:	1dfb      	adds	r3, r7, #7
 800199c:	781b      	ldrb	r3, [r3, #0]
 800199e:	2b4c      	cmp	r3, #76	@ 0x4c
 80019a0:	d108      	bne.n	80019b4 <_ZL10handleByteh+0x19c>
 80019a2:	4b38      	ldr	r3, [pc, #224]	@ (8001a84 <_ZL10handleByteh+0x26c>)
 80019a4:	0018      	movs	r0, r3
 80019a6:	f7ff f86d 	bl	8000a84 <_ZN11MotorDriver8spinLeftEv>
 80019aa:	4b3c      	ldr	r3, [pc, #240]	@ (8001a9c <_ZL10handleByteh+0x284>)
 80019ac:	0018      	movs	r0, r3
 80019ae:	f7ff fdab 	bl	8001508 <_ZN4Uart5writeEPKc>
 80019b2:	e051      	b.n	8001a58 <_ZL10handleByteh+0x240>
        else               { motor.spinRight(); Uart::write("M=R\n"); return; }
 80019b4:	4b33      	ldr	r3, [pc, #204]	@ (8001a84 <_ZL10handleByteh+0x26c>)
 80019b6:	0018      	movs	r0, r3
 80019b8:	f7ff f854 	bl	8000a64 <_ZN11MotorDriver9spinRightEv>
 80019bc:	4b38      	ldr	r3, [pc, #224]	@ (8001aa0 <_ZL10handleByteh+0x288>)
 80019be:	0018      	movs	r0, r3
 80019c0:	f7ff fda2 	bl	8001508 <_ZN4Uart5writeEPKc>
 80019c4:	e048      	b.n	8001a58 <_ZL10handleByteh+0x240>
    }

    if (b == 'X')
 80019c6:	1dfb      	adds	r3, r7, #7
 80019c8:	781b      	ldrb	r3, [r3, #0]
 80019ca:	2b58      	cmp	r3, #88	@ 0x58
 80019cc:	d10f      	bne.n	80019ee <_ZL10handleByteh+0x1d6>
    {
        if (autoActive)
 80019ce:	4b2a      	ldr	r3, [pc, #168]	@ (8001a78 <_ZL10handleByteh+0x260>)
 80019d0:	781b      	ldrb	r3, [r3, #0]
 80019d2:	2b00      	cmp	r3, #0
 80019d4:	d008      	beq.n	80019e8 <_ZL10handleByteh+0x1d0>
        {
            autopilotStop_();
 80019d6:	f7ff fe6d 	bl	80016b4 <_ZL14autopilotStop_v>
            motor.setSpeedPercent(manualSpeedPct);
 80019da:	4b26      	ldr	r3, [pc, #152]	@ (8001a74 <_ZL10handleByteh+0x25c>)
 80019dc:	781a      	ldrb	r2, [r3, #0]
 80019de:	4b29      	ldr	r3, [pc, #164]	@ (8001a84 <_ZL10handleByteh+0x26c>)
 80019e0:	0011      	movs	r1, r2
 80019e2:	0018      	movs	r0, r3
 80019e4:	f7fe ff2c 	bl	8000840 <_ZN11MotorDriver15setSpeedPercentEh>
        }
        stopAll();
 80019e8:	f7ff fe0c 	bl	8001604 <_ZL7stopAllv>
        return;
 80019ec:	e034      	b.n	8001a58 <_ZL10handleByteh+0x240>
    }

    if (b == 'g')
 80019ee:	1dfb      	adds	r3, r7, #7
 80019f0:	781b      	ldrb	r3, [r3, #0]
 80019f2:	2b67      	cmp	r3, #103	@ 0x67
 80019f4:	d10a      	bne.n	8001a0c <_ZL10handleByteh+0x1f4>
    {
        if (!sensorBusy) sensorShotReq = true;
 80019f6:	4b2b      	ldr	r3, [pc, #172]	@ (8001aa4 <_ZL10handleByteh+0x28c>)
 80019f8:	781b      	ldrb	r3, [r3, #0]
 80019fa:	2201      	movs	r2, #1
 80019fc:	4053      	eors	r3, r2
 80019fe:	b2db      	uxtb	r3, r3
 8001a00:	2b00      	cmp	r3, #0
 8001a02:	d028      	beq.n	8001a56 <_ZL10handleByteh+0x23e>
 8001a04:	4b28      	ldr	r3, [pc, #160]	@ (8001aa8 <_ZL10handleByteh+0x290>)
 8001a06:	2201      	movs	r2, #1
 8001a08:	701a      	strb	r2, [r3, #0]
        return;
 8001a0a:	e024      	b.n	8001a56 <_ZL10handleByteh+0x23e>
    }

    if (b == 'E')
 8001a0c:	1dfb      	adds	r3, r7, #7
 8001a0e:	781b      	ldrb	r3, [r3, #0]
 8001a10:	2b45      	cmp	r3, #69	@ 0x45
 8001a12:	d10d      	bne.n	8001a30 <_ZL10handleByteh+0x218>
    {
        sensorsEnabled = true;
 8001a14:	4b25      	ldr	r3, [pc, #148]	@ (8001aac <_ZL10handleByteh+0x294>)
 8001a16:	2201      	movs	r2, #1
 8001a18:	701a      	strb	r2, [r3, #0]
        nextSensorTickMs = loopMs + SENSOR_PERIOD_MS;
 8001a1a:	4b1c      	ldr	r3, [pc, #112]	@ (8001a8c <_ZL10handleByteh+0x274>)
 8001a1c:	681b      	ldr	r3, [r3, #0]
 8001a1e:	33c8      	adds	r3, #200	@ 0xc8
 8001a20:	001a      	movs	r2, r3
 8001a22:	4b23      	ldr	r3, [pc, #140]	@ (8001ab0 <_ZL10handleByteh+0x298>)
 8001a24:	601a      	str	r2, [r3, #0]
        Uart::write("SNS=1\n");
 8001a26:	4b23      	ldr	r3, [pc, #140]	@ (8001ab4 <_ZL10handleByteh+0x29c>)
 8001a28:	0018      	movs	r0, r3
 8001a2a:	f7ff fd6d 	bl	8001508 <_ZN4Uart5writeEPKc>
        return;
 8001a2e:	e013      	b.n	8001a58 <_ZL10handleByteh+0x240>
    }

    if (b == 'e')
 8001a30:	1dfb      	adds	r3, r7, #7
 8001a32:	781b      	ldrb	r3, [r3, #0]
 8001a34:	2b65      	cmp	r3, #101	@ 0x65
 8001a36:	d107      	bne.n	8001a48 <_ZL10handleByteh+0x230>
    {
        sensorsEnabled = false;
 8001a38:	4b1c      	ldr	r3, [pc, #112]	@ (8001aac <_ZL10handleByteh+0x294>)
 8001a3a:	2200      	movs	r2, #0
 8001a3c:	701a      	strb	r2, [r3, #0]
        Uart::write("SNS=0\n");
 8001a3e:	4b1e      	ldr	r3, [pc, #120]	@ (8001ab8 <_ZL10handleByteh+0x2a0>)
 8001a40:	0018      	movs	r0, r3
 8001a42:	f7ff fd61 	bl	8001508 <_ZN4Uart5writeEPKc>
        return;
 8001a46:	e007      	b.n	8001a58 <_ZL10handleByteh+0x240>
    }

    Uart::write("RX=?\n");
 8001a48:	4b1c      	ldr	r3, [pc, #112]	@ (8001abc <_ZL10handleByteh+0x2a4>)
 8001a4a:	0018      	movs	r0, r3
 8001a4c:	f7ff fd5c 	bl	8001508 <_ZN4Uart5writeEPKc>
 8001a50:	e002      	b.n	8001a58 <_ZL10handleByteh+0x240>
        return;
 8001a52:	46c0      	nop			@ (mov r8, r8)
 8001a54:	e000      	b.n	8001a58 <_ZL10handleByteh+0x240>
        return;
 8001a56:	46c0      	nop			@ (mov r8, r8)
}
 8001a58:	46bd      	mov	sp, r7
 8001a5a:	b004      	add	sp, #16
 8001a5c:	bd80      	pop	{r7, pc}
 8001a5e:	46c0      	nop			@ (mov r8, r8)
 8001a60:	20000000 	.word	0x20000000
 8001a64:	08002c04 	.word	0x08002c04
 8001a68:	08002c0c 	.word	0x08002c0c
 8001a6c:	08002c14 	.word	0x08002c14
 8001a70:	08002c1c 	.word	0x08002c1c
 8001a74:	20000020 	.word	0x20000020
 8001a78:	200000e5 	.word	0x200000e5
 8001a7c:	200000e4 	.word	0x200000e4
 8001a80:	08002c24 	.word	0x08002c24
 8001a84:	20000098 	.word	0x20000098
 8001a88:	08002c2c 	.word	0x08002c2c
 8001a8c:	200000cc 	.word	0x200000cc
 8001a90:	200000e8 	.word	0x200000e8
 8001a94:	08002be4 	.word	0x08002be4
 8001a98:	08002bec 	.word	0x08002bec
 8001a9c:	08002bf4 	.word	0x08002bf4
 8001aa0:	08002bfc 	.word	0x08002bfc
 8001aa4:	200000c6 	.word	0x200000c6
 8001aa8:	200000c4 	.word	0x200000c4
 8001aac:	200000c5 	.word	0x200000c5
 8001ab0:	200000c8 	.word	0x200000c8
 8001ab4:	08002c34 	.word	0x08002c34
 8001ab8:	08002c3c 	.word	0x08002c3c
 8001abc:	08002c44 	.word	0x08002c44

08001ac0 <main>:

int main()
{
 8001ac0:	b580      	push	{r7, lr}
 8001ac2:	b082      	sub	sp, #8
 8001ac4:	af00      	add	r7, sp, #0
    Clock::init48MHz_HSI48();
 8001ac6:	f7fe ffed 	bl	8000aa4 <_ZN5Clock15init48MHz_HSI48Ev>
    Timebase::init();
 8001aca:	f7ff faa9 	bl	8001020 <_ZN8Timebase4initEv>

    Uart::init(115200);
 8001ace:	23e1      	movs	r3, #225	@ 0xe1
 8001ad0:	025b      	lsls	r3, r3, #9
 8001ad2:	0018      	movs	r0, r3
 8001ad4:	f7ff fce2 	bl	800149c <_ZN4Uart4initEm>
    Uart::write("BOOT\n");
 8001ad8:	4b6e      	ldr	r3, [pc, #440]	@ (8001c94 <main+0x1d4>)
 8001ada:	0018      	movs	r0, r3
 8001adc:	f7ff fd14 	bl	8001508 <_ZN4Uart5writeEPKc>

    motor.init();
 8001ae0:	4b6d      	ldr	r3, [pc, #436]	@ (8001c98 <main+0x1d8>)
 8001ae2:	0018      	movs	r0, r3
 8001ae4:	f7fe fd62 	bl	80005ac <_ZN11MotorDriver4initEv>
    motor.enable();
 8001ae8:	4b6b      	ldr	r3, [pc, #428]	@ (8001c98 <main+0x1d8>)
 8001aea:	0018      	movs	r0, r3
 8001aec:	f7fe fde8 	bl	80006c0 <_ZN11MotorDriver6enableEv>

    lights.init();
 8001af0:	4b6a      	ldr	r3, [pc, #424]	@ (8001c9c <main+0x1dc>)
 8001af2:	0018      	movs	r0, r3
 8001af4:	f7fe fcb4 	bl	8000460 <_ZN6Lights4initEv>
    lights.setHeadlight(false);
 8001af8:	4b68      	ldr	r3, [pc, #416]	@ (8001c9c <main+0x1dc>)
 8001afa:	2100      	movs	r1, #0
 8001afc:	0018      	movs	r0, r3
 8001afe:	f7fe fcd4 	bl	80004aa <_ZN6Lights12setHeadlightEb>
    lights.setStoplight(false);
 8001b02:	4b66      	ldr	r3, [pc, #408]	@ (8001c9c <main+0x1dc>)
 8001b04:	2100      	movs	r1, #0
 8001b06:	0018      	movs	r0, r3
 8001b08:	f7fe fce9 	bl	80004de <_ZN6Lights12setStoplightEb>

    usFront.init();
 8001b0c:	4b64      	ldr	r3, [pc, #400]	@ (8001ca0 <main+0x1e0>)
 8001b0e:	0018      	movs	r0, r3
 8001b10:	f000 fa3d 	bl	8001f8e <_ZN16UltrasonicSensor4initEv>
    usRear.init();
 8001b14:	4b63      	ldr	r3, [pc, #396]	@ (8001ca4 <main+0x1e4>)
 8001b16:	0018      	movs	r0, r3
 8001b18:	f000 fa39 	bl	8001f8e <_ZN16UltrasonicSensor4initEv>

    setSpeed(40);
 8001b1c:	2028      	movs	r0, #40	@ 0x28
 8001b1e:	f7ff fd43 	bl	80015a8 <_ZL8setSpeedh>
    manualSpeedPct = 40;
 8001b22:	4b61      	ldr	r3, [pc, #388]	@ (8001ca8 <main+0x1e8>)
 8001b24:	2228      	movs	r2, #40	@ 0x28
 8001b26:	701a      	strb	r2, [r3, #0]
    stopAll();
 8001b28:	f7ff fd6c 	bl	8001604 <_ZL7stopAllv>

    loopMs = 0;
 8001b2c:	4b5f      	ldr	r3, [pc, #380]	@ (8001cac <main+0x1ec>)
 8001b2e:	2200      	movs	r2, #0
 8001b30:	601a      	str	r2, [r3, #0]
    nextSensorTickMs = SENSOR_PERIOD_MS;
 8001b32:	4b5f      	ldr	r3, [pc, #380]	@ (8001cb0 <main+0x1f0>)
 8001b34:	22c8      	movs	r2, #200	@ 0xc8
 8001b36:	601a      	str	r2, [r3, #0]

    params.sensorsEnabled = true;
 8001b38:	4b5e      	ldr	r3, [pc, #376]	@ (8001cb4 <main+0x1f4>)
 8001b3a:	2201      	movs	r2, #1
 8001b3c:	711a      	strb	r2, [r3, #4]
    params.autoModeEnabled = false;
 8001b3e:	4b5d      	ldr	r3, [pc, #372]	@ (8001cb4 <main+0x1f4>)
 8001b40:	2200      	movs	r2, #0
 8001b42:	715a      	strb	r2, [r3, #5]
    if (params.obstacleThresholdMm == 0) params.obstacleThresholdMm = 250;
 8001b44:	4b5b      	ldr	r3, [pc, #364]	@ (8001cb4 <main+0x1f4>)
 8001b46:	68db      	ldr	r3, [r3, #12]
 8001b48:	2b00      	cmp	r3, #0
 8001b4a:	d102      	bne.n	8001b52 <main+0x92>
 8001b4c:	4b59      	ldr	r3, [pc, #356]	@ (8001cb4 <main+0x1f4>)
 8001b4e:	22fa      	movs	r2, #250	@ 0xfa
 8001b50:	60da      	str	r2, [r3, #12]
    if (params.reverseTimeMs == 0)       params.reverseTimeMs = 500;
 8001b52:	4b58      	ldr	r3, [pc, #352]	@ (8001cb4 <main+0x1f4>)
 8001b54:	691b      	ldr	r3, [r3, #16]
 8001b56:	2b00      	cmp	r3, #0
 8001b58:	d103      	bne.n	8001b62 <main+0xa2>
 8001b5a:	4b56      	ldr	r3, [pc, #344]	@ (8001cb4 <main+0x1f4>)
 8001b5c:	22fa      	movs	r2, #250	@ 0xfa
 8001b5e:	0052      	lsls	r2, r2, #1
 8001b60:	611a      	str	r2, [r3, #16]
    if (params.turnTimeMs == 0)          params.turnTimeMs = 600;
 8001b62:	4b54      	ldr	r3, [pc, #336]	@ (8001cb4 <main+0x1f4>)
 8001b64:	695b      	ldr	r3, [r3, #20]
 8001b66:	2b00      	cmp	r3, #0
 8001b68:	d103      	bne.n	8001b72 <main+0xb2>
 8001b6a:	4b52      	ldr	r3, [pc, #328]	@ (8001cb4 <main+0x1f4>)
 8001b6c:	2296      	movs	r2, #150	@ 0x96
 8001b6e:	0092      	lsls	r2, r2, #2
 8001b70:	615a      	str	r2, [r3, #20]

    autonomy.init(params, usFront, usRear);
 8001b72:	4b4c      	ldr	r3, [pc, #304]	@ (8001ca4 <main+0x1e4>)
 8001b74:	4a4a      	ldr	r2, [pc, #296]	@ (8001ca0 <main+0x1e0>)
 8001b76:	494f      	ldr	r1, [pc, #316]	@ (8001cb4 <main+0x1f4>)
 8001b78:	484f      	ldr	r0, [pc, #316]	@ (8001cb8 <main+0x1f8>)
 8001b7a:	f7fe fb59 	bl	8000230 <_ZN18AutonomyController4initER10ParametersR16UltrasonicSensorS3_>

    lastManualDriveMs = loopMs;
 8001b7e:	4b4b      	ldr	r3, [pc, #300]	@ (8001cac <main+0x1ec>)
 8001b80:	681a      	ldr	r2, [r3, #0]
 8001b82:	4b4e      	ldr	r3, [pc, #312]	@ (8001cbc <main+0x1fc>)
 8001b84:	601a      	str	r2, [r3, #0]
    nextAutoTickMs = loopMs + AUTO_TICK_MS;
 8001b86:	4b49      	ldr	r3, [pc, #292]	@ (8001cac <main+0x1ec>)
 8001b88:	681b      	ldr	r3, [r3, #0]
 8001b8a:	3364      	adds	r3, #100	@ 0x64
 8001b8c:	001a      	movs	r2, r3
 8001b8e:	4b4c      	ldr	r3, [pc, #304]	@ (8001cc0 <main+0x200>)
 8001b90:	601a      	str	r2, [r3, #0]

    while (1)
    {
        uint8_t b = 0;
 8001b92:	1d7b      	adds	r3, r7, #5
 8001b94:	2200      	movs	r2, #0
 8001b96:	701a      	strb	r2, [r3, #0]
        while (Uart::readByte(b))
 8001b98:	e004      	b.n	8001ba4 <main+0xe4>
        {
            handleByte(b);
 8001b9a:	1d7b      	adds	r3, r7, #5
 8001b9c:	781b      	ldrb	r3, [r3, #0]
 8001b9e:	0018      	movs	r0, r3
 8001ba0:	f7ff fe3a 	bl	8001818 <_ZL10handleByteh>
        while (Uart::readByte(b))
 8001ba4:	1d7b      	adds	r3, r7, #5
 8001ba6:	0018      	movs	r0, r3
 8001ba8:	f7ff fccc 	bl	8001544 <_ZN4Uart8readByteERh>
 8001bac:	1e03      	subs	r3, r0, #0
 8001bae:	d1f4      	bne.n	8001b9a <main+0xda>
        }

        if (!sensorBusy)
 8001bb0:	4b44      	ldr	r3, [pc, #272]	@ (8001cc4 <main+0x204>)
 8001bb2:	781b      	ldrb	r3, [r3, #0]
 8001bb4:	2201      	movs	r2, #1
 8001bb6:	4053      	eors	r3, r2
 8001bb8:	b2db      	uxtb	r3, r3
 8001bba:	2b00      	cmp	r3, #0
 8001bbc:	d02b      	beq.n	8001c16 <main+0x156>
        {
            const bool doShot = sensorShotReq;
 8001bbe:	1dfb      	adds	r3, r7, #7
 8001bc0:	4a41      	ldr	r2, [pc, #260]	@ (8001cc8 <main+0x208>)
 8001bc2:	7812      	ldrb	r2, [r2, #0]
 8001bc4:	701a      	strb	r2, [r3, #0]
            const bool doPeriodic = sensorsEnabled && ((int32_t)(loopMs - nextSensorTickMs) >= 0);
 8001bc6:	4b41      	ldr	r3, [pc, #260]	@ (8001ccc <main+0x20c>)
 8001bc8:	781b      	ldrb	r3, [r3, #0]
 8001bca:	2b00      	cmp	r3, #0
 8001bcc:	d007      	beq.n	8001bde <main+0x11e>
 8001bce:	4b37      	ldr	r3, [pc, #220]	@ (8001cac <main+0x1ec>)
 8001bd0:	681a      	ldr	r2, [r3, #0]
 8001bd2:	4b37      	ldr	r3, [pc, #220]	@ (8001cb0 <main+0x1f0>)
 8001bd4:	681b      	ldr	r3, [r3, #0]
 8001bd6:	1ad3      	subs	r3, r2, r3
 8001bd8:	d401      	bmi.n	8001bde <main+0x11e>
 8001bda:	2201      	movs	r2, #1
 8001bdc:	e000      	b.n	8001be0 <main+0x120>
 8001bde:	2200      	movs	r2, #0
 8001be0:	1dbb      	adds	r3, r7, #6
 8001be2:	701a      	strb	r2, [r3, #0]

            if (doShot || doPeriodic)
 8001be4:	1dfb      	adds	r3, r7, #7
 8001be6:	781b      	ldrb	r3, [r3, #0]
 8001be8:	2b00      	cmp	r3, #0
 8001bea:	d103      	bne.n	8001bf4 <main+0x134>
 8001bec:	1dbb      	adds	r3, r7, #6
 8001bee:	781b      	ldrb	r3, [r3, #0]
 8001bf0:	2b00      	cmp	r3, #0
 8001bf2:	d010      	beq.n	8001c16 <main+0x156>
            {
                sensorShotReq = false;
 8001bf4:	4b34      	ldr	r3, [pc, #208]	@ (8001cc8 <main+0x208>)
 8001bf6:	2200      	movs	r2, #0
 8001bf8:	701a      	strb	r2, [r3, #0]
                sensorBusy = true;
 8001bfa:	4b32      	ldr	r3, [pc, #200]	@ (8001cc4 <main+0x204>)
 8001bfc:	2201      	movs	r2, #1
 8001bfe:	701a      	strb	r2, [r3, #0]

                sendDistances();
 8001c00:	f7ff fd12 	bl	8001628 <_ZL13sendDistancesv>

                nextSensorTickMs = loopMs + SENSOR_PERIOD_MS;
 8001c04:	4b29      	ldr	r3, [pc, #164]	@ (8001cac <main+0x1ec>)
 8001c06:	681b      	ldr	r3, [r3, #0]
 8001c08:	33c8      	adds	r3, #200	@ 0xc8
 8001c0a:	001a      	movs	r2, r3
 8001c0c:	4b28      	ldr	r3, [pc, #160]	@ (8001cb0 <main+0x1f0>)
 8001c0e:	601a      	str	r2, [r3, #0]

                sensorBusy = false;
 8001c10:	4b2c      	ldr	r3, [pc, #176]	@ (8001cc4 <main+0x204>)
 8001c12:	2200      	movs	r2, #0
 8001c14:	701a      	strb	r2, [r3, #0]
            }
        }

        if (autoAllowed && !autoActive)
 8001c16:	4b2e      	ldr	r3, [pc, #184]	@ (8001cd0 <main+0x210>)
 8001c18:	781b      	ldrb	r3, [r3, #0]
 8001c1a:	2b00      	cmp	r3, #0
 8001c1c:	d012      	beq.n	8001c44 <main+0x184>
 8001c1e:	4b2d      	ldr	r3, [pc, #180]	@ (8001cd4 <main+0x214>)
 8001c20:	781b      	ldrb	r3, [r3, #0]
 8001c22:	2201      	movs	r2, #1
 8001c24:	4053      	eors	r3, r2
 8001c26:	b2db      	uxtb	r3, r3
 8001c28:	2b00      	cmp	r3, #0
 8001c2a:	d00b      	beq.n	8001c44 <main+0x184>
        {
            if ((int32_t)(loopMs - (lastManualDriveMs + AUTO_IDLE_MS)) >= 0)
 8001c2c:	4b1f      	ldr	r3, [pc, #124]	@ (8001cac <main+0x1ec>)
 8001c2e:	681a      	ldr	r2, [r3, #0]
 8001c30:	4b22      	ldr	r3, [pc, #136]	@ (8001cbc <main+0x1fc>)
 8001c32:	681b      	ldr	r3, [r3, #0]
 8001c34:	1ad3      	subs	r3, r2, r3
 8001c36:	4a28      	ldr	r2, [pc, #160]	@ (8001cd8 <main+0x218>)
 8001c38:	4694      	mov	ip, r2
 8001c3a:	4463      	add	r3, ip
 8001c3c:	2b00      	cmp	r3, #0
 8001c3e:	db01      	blt.n	8001c44 <main+0x184>
            {
                autopilotStart_();
 8001c40:	f7ff fd64 	bl	800170c <_ZL15autopilotStart_v>
            }
        }

        if (autoActive)
 8001c44:	4b23      	ldr	r3, [pc, #140]	@ (8001cd4 <main+0x214>)
 8001c46:	781b      	ldrb	r3, [r3, #0]
 8001c48:	2b00      	cmp	r3, #0
 8001c4a:	d01a      	beq.n	8001c82 <main+0x1c2>
        {
            if ((int32_t)(loopMs - nextAutoTickMs) >= 0)
 8001c4c:	4b17      	ldr	r3, [pc, #92]	@ (8001cac <main+0x1ec>)
 8001c4e:	681a      	ldr	r2, [r3, #0]
 8001c50:	4b1b      	ldr	r3, [pc, #108]	@ (8001cc0 <main+0x200>)
 8001c52:	681b      	ldr	r3, [r3, #0]
 8001c54:	1ad3      	subs	r3, r2, r3
 8001c56:	d414      	bmi.n	8001c82 <main+0x1c2>
            {
                nextAutoTickMs = loopMs + AUTO_TICK_MS;
 8001c58:	4b14      	ldr	r3, [pc, #80]	@ (8001cac <main+0x1ec>)
 8001c5a:	681b      	ldr	r3, [r3, #0]
 8001c5c:	3364      	adds	r3, #100	@ 0x64
 8001c5e:	001a      	movs	r2, r3
 8001c60:	4b17      	ldr	r3, [pc, #92]	@ (8001cc0 <main+0x200>)
 8001c62:	601a      	str	r2, [r3, #0]

                const Command c = autonomy.update(loopMs);
 8001c64:	4b11      	ldr	r3, [pc, #68]	@ (8001cac <main+0x1ec>)
 8001c66:	681a      	ldr	r2, [r3, #0]
 8001c68:	4b13      	ldr	r3, [pc, #76]	@ (8001cb8 <main+0x1f8>)
 8001c6a:	0011      	movs	r1, r2
 8001c6c:	0018      	movs	r0, r3
 8001c6e:	f7fe fb37 	bl	80002e0 <_ZN18AutonomyController6updateEm>
 8001c72:	1c03      	adds	r3, r0, #0
 8001c74:	1c1a      	adds	r2, r3, #0
 8001c76:	003b      	movs	r3, r7
 8001c78:	801a      	strh	r2, [r3, #0]
                applyCommandToMotor_(c);
 8001c7a:	003b      	movs	r3, r7
 8001c7c:	0018      	movs	r0, r3
 8001c7e:	f7ff fd7d 	bl	800177c <_ZL20applyCommandToMotor_RK7Command>
            }
        }

        Timebase::delayMs(2);
 8001c82:	2002      	movs	r0, #2
 8001c84:	f7ff f9ee 	bl	8001064 <_ZN8Timebase7delayMsEm>
        loopMs += 2;
 8001c88:	4b08      	ldr	r3, [pc, #32]	@ (8001cac <main+0x1ec>)
 8001c8a:	681b      	ldr	r3, [r3, #0]
 8001c8c:	1c9a      	adds	r2, r3, #2
 8001c8e:	4b07      	ldr	r3, [pc, #28]	@ (8001cac <main+0x1ec>)
 8001c90:	601a      	str	r2, [r3, #0]
    }
 8001c92:	e77e      	b.n	8001b92 <main+0xd2>
 8001c94:	08002c4c 	.word	0x08002c4c
 8001c98:	20000098 	.word	0x20000098
 8001c9c:	20000000 	.word	0x20000000
 8001ca0:	2000009c 	.word	0x2000009c
 8001ca4:	200000b0 	.word	0x200000b0
 8001ca8:	20000020 	.word	0x20000020
 8001cac:	200000cc 	.word	0x200000cc
 8001cb0:	200000c8 	.word	0x200000c8
 8001cb4:	20000004 	.word	0x20000004
 8001cb8:	200000d0 	.word	0x200000d0
 8001cbc:	200000e8 	.word	0x200000e8
 8001cc0:	200000ec 	.word	0x200000ec
 8001cc4:	200000c6 	.word	0x200000c6
 8001cc8:	200000c4 	.word	0x200000c4
 8001ccc:	200000c5 	.word	0x200000c5
 8001cd0:	200000e4 	.word	0x200000e4
 8001cd4:	200000e5 	.word	0x200000e5
 8001cd8:	ffffd8f0 	.word	0xffffd8f0

08001cdc <_Z41__static_initialization_and_destruction_0ii>:
}
 8001cdc:	b580      	push	{r7, lr}
 8001cde:	b084      	sub	sp, #16
 8001ce0:	af02      	add	r7, sp, #8
 8001ce2:	6078      	str	r0, [r7, #4]
 8001ce4:	6039      	str	r1, [r7, #0]
 8001ce6:	687b      	ldr	r3, [r7, #4]
 8001ce8:	2b01      	cmp	r3, #1
 8001cea:	d116      	bne.n	8001d1a <_Z41__static_initialization_and_destruction_0ii+0x3e>
 8001cec:	683b      	ldr	r3, [r7, #0]
 8001cee:	4a0d      	ldr	r2, [pc, #52]	@ (8001d24 <_Z41__static_initialization_and_destruction_0ii+0x48>)
 8001cf0:	4293      	cmp	r3, r2
 8001cf2:	d112      	bne.n	8001d1a <_Z41__static_initialization_and_destruction_0ii+0x3e>
    BoardPins::US_ECHO_PORT, BoardPins::US_ECHO_PIN);
 8001cf4:	2390      	movs	r3, #144	@ 0x90
 8001cf6:	05db      	lsls	r3, r3, #23
 8001cf8:	2290      	movs	r2, #144	@ 0x90
 8001cfa:	05d1      	lsls	r1, r2, #23
 8001cfc:	480a      	ldr	r0, [pc, #40]	@ (8001d28 <_Z41__static_initialization_and_destruction_0ii+0x4c>)
 8001cfe:	2201      	movs	r2, #1
 8001d00:	9200      	str	r2, [sp, #0]
 8001d02:	2202      	movs	r2, #2
 8001d04:	f000 f8e4 	bl	8001ed0 <_ZN16UltrasonicSensorC1EP12GPIO_TypeDeftS1_t>
    BoardPins::US_REAR_ECHO_PORT, BoardPins::US_REAR_ECHO_PIN);
 8001d08:	4a08      	ldr	r2, [pc, #32]	@ (8001d2c <_Z41__static_initialization_and_destruction_0ii+0x50>)
 8001d0a:	4908      	ldr	r1, [pc, #32]	@ (8001d2c <_Z41__static_initialization_and_destruction_0ii+0x50>)
 8001d0c:	4808      	ldr	r0, [pc, #32]	@ (8001d30 <_Z41__static_initialization_and_destruction_0ii+0x54>)
 8001d0e:	2302      	movs	r3, #2
 8001d10:	9300      	str	r3, [sp, #0]
 8001d12:	0013      	movs	r3, r2
 8001d14:	2201      	movs	r2, #1
 8001d16:	f000 f8db 	bl	8001ed0 <_ZN16UltrasonicSensorC1EP12GPIO_TypeDeftS1_t>
}
 8001d1a:	46c0      	nop			@ (mov r8, r8)
 8001d1c:	46bd      	mov	sp, r7
 8001d1e:	b002      	add	sp, #8
 8001d20:	bd80      	pop	{r7, pc}
 8001d22:	46c0      	nop			@ (mov r8, r8)
 8001d24:	0000ffff 	.word	0x0000ffff
 8001d28:	2000009c 	.word	0x2000009c
 8001d2c:	48000800 	.word	0x48000800
 8001d30:	200000b0 	.word	0x200000b0

08001d34 <_GLOBAL__sub_I_main>:
 8001d34:	b580      	push	{r7, lr}
 8001d36:	af00      	add	r7, sp, #0
 8001d38:	4b03      	ldr	r3, [pc, #12]	@ (8001d48 <_GLOBAL__sub_I_main+0x14>)
 8001d3a:	0019      	movs	r1, r3
 8001d3c:	2001      	movs	r0, #1
 8001d3e:	f7ff ffcd 	bl	8001cdc <_Z41__static_initialization_and_destruction_0ii>
 8001d42:	46bd      	mov	sp, r7
 8001d44:	bd80      	pop	{r7, pc}
 8001d46:	46c0      	nop			@ (mov r8, r8)
 8001d48:	0000ffff 	.word	0x0000ffff

08001d4c <_sbrk>:
 *
 * @param incr Memory size
 * @return Pointer to allocated memory
 */
void *_sbrk(ptrdiff_t incr)
{
 8001d4c:	b580      	push	{r7, lr}
 8001d4e:	b086      	sub	sp, #24
 8001d50:	af00      	add	r7, sp, #0
 8001d52:	6078      	str	r0, [r7, #4]
  extern uint8_t _end; /* Symbol defined in the linker script */
  extern uint8_t _estack; /* Symbol defined in the linker script */
  extern uint32_t _Min_Stack_Size; /* Symbol defined in the linker script */
  const uint32_t stack_limit = (uint32_t)&_estack - (uint32_t)&_Min_Stack_Size;
 8001d54:	4a14      	ldr	r2, [pc, #80]	@ (8001da8 <_sbrk+0x5c>)
 8001d56:	4b15      	ldr	r3, [pc, #84]	@ (8001dac <_sbrk+0x60>)
 8001d58:	1ad3      	subs	r3, r2, r3
 8001d5a:	617b      	str	r3, [r7, #20]
  const uint8_t *max_heap = (uint8_t *)stack_limit;
 8001d5c:	697b      	ldr	r3, [r7, #20]
 8001d5e:	613b      	str	r3, [r7, #16]
  uint8_t *prev_heap_end;

  /* Initialize heap end at first call */
  if (NULL == __sbrk_heap_end)
 8001d60:	4b13      	ldr	r3, [pc, #76]	@ (8001db0 <_sbrk+0x64>)
 8001d62:	681b      	ldr	r3, [r3, #0]
 8001d64:	2b00      	cmp	r3, #0
 8001d66:	d102      	bne.n	8001d6e <_sbrk+0x22>
  {
    __sbrk_heap_end = &_end;
 8001d68:	4b11      	ldr	r3, [pc, #68]	@ (8001db0 <_sbrk+0x64>)
 8001d6a:	4a12      	ldr	r2, [pc, #72]	@ (8001db4 <_sbrk+0x68>)
 8001d6c:	601a      	str	r2, [r3, #0]
  }

  /* Protect heap from growing into the reserved MSP stack */
  if (__sbrk_heap_end + incr > max_heap)
 8001d6e:	4b10      	ldr	r3, [pc, #64]	@ (8001db0 <_sbrk+0x64>)
 8001d70:	681a      	ldr	r2, [r3, #0]
 8001d72:	687b      	ldr	r3, [r7, #4]
 8001d74:	18d3      	adds	r3, r2, r3
 8001d76:	693a      	ldr	r2, [r7, #16]
 8001d78:	429a      	cmp	r2, r3
 8001d7a:	d207      	bcs.n	8001d8c <_sbrk+0x40>
  {
    errno = ENOMEM;
 8001d7c:	f000 fa98 	bl	80022b0 <__errno>
 8001d80:	0003      	movs	r3, r0
 8001d82:	220c      	movs	r2, #12
 8001d84:	601a      	str	r2, [r3, #0]
    return (void *)-1;
 8001d86:	2301      	movs	r3, #1
 8001d88:	425b      	negs	r3, r3
 8001d8a:	e009      	b.n	8001da0 <_sbrk+0x54>
  }

  prev_heap_end = __sbrk_heap_end;
 8001d8c:	4b08      	ldr	r3, [pc, #32]	@ (8001db0 <_sbrk+0x64>)
 8001d8e:	681b      	ldr	r3, [r3, #0]
 8001d90:	60fb      	str	r3, [r7, #12]
  __sbrk_heap_end += incr;
 8001d92:	4b07      	ldr	r3, [pc, #28]	@ (8001db0 <_sbrk+0x64>)
 8001d94:	681a      	ldr	r2, [r3, #0]
 8001d96:	687b      	ldr	r3, [r7, #4]
 8001d98:	18d2      	adds	r2, r2, r3
 8001d9a:	4b05      	ldr	r3, [pc, #20]	@ (8001db0 <_sbrk+0x64>)
 8001d9c:	601a      	str	r2, [r3, #0]

  return (void *)prev_heap_end;
 8001d9e:	68fb      	ldr	r3, [r7, #12]
}
 8001da0:	0018      	movs	r0, r3
 8001da2:	46bd      	mov	sp, r7
 8001da4:	b006      	add	sp, #24
 8001da6:	bd80      	pop	{r7, pc}
 8001da8:	20008000 	.word	0x20008000
 8001dac:	00000400 	.word	0x00000400
 8001db0:	200000f0 	.word	0x200000f0
 8001db4:	20000240 	.word	0x20000240

08001db8 <SystemInit>:
  * @brief  Setup the microcontroller system
  * @param  None
  * @retval None
  */
void SystemInit(void)
{
 8001db8:	b580      	push	{r7, lr}
 8001dba:	af00      	add	r7, sp, #0
                         before branch to main program. This call is made inside
                         the "startup_stm32f0xx.s" file.
                         User can setups the default system clock (System clock source, PLL Multiplier
                         and Divider factors, AHB/APBx prescalers and Flash settings).
   */
}
 8001dbc:	46c0      	nop			@ (mov r8, r8)
 8001dbe:	46bd      	mov	sp, r7
 8001dc0:	bd80      	pop	{r7, pc}
	...

08001dc4 <SystemCoreClockUpdate>:
  *
  * @param  None
  * @retval None
  */
void SystemCoreClockUpdate (void)
{
 8001dc4:	b580      	push	{r7, lr}
 8001dc6:	b084      	sub	sp, #16
 8001dc8:	af00      	add	r7, sp, #0
  uint32_t tmp = 0, pllmull = 0, pllsource = 0, predivfactor = 0;
 8001dca:	2300      	movs	r3, #0
 8001dcc:	60fb      	str	r3, [r7, #12]
 8001dce:	2300      	movs	r3, #0
 8001dd0:	60bb      	str	r3, [r7, #8]
 8001dd2:	2300      	movs	r3, #0
 8001dd4:	607b      	str	r3, [r7, #4]
 8001dd6:	2300      	movs	r3, #0
 8001dd8:	603b      	str	r3, [r7, #0]

  /* Get SYSCLK source -------------------------------------------------------*/
  tmp = RCC->CFGR & RCC_CFGR_SWS;
 8001dda:	4b38      	ldr	r3, [pc, #224]	@ (8001ebc <SystemCoreClockUpdate+0xf8>)
 8001ddc:	685b      	ldr	r3, [r3, #4]
 8001dde:	220c      	movs	r2, #12
 8001de0:	4013      	ands	r3, r2
 8001de2:	60fb      	str	r3, [r7, #12]

  switch (tmp)
 8001de4:	68fb      	ldr	r3, [r7, #12]
 8001de6:	2b08      	cmp	r3, #8
 8001de8:	d011      	beq.n	8001e0e <SystemCoreClockUpdate+0x4a>
 8001dea:	68fb      	ldr	r3, [r7, #12]
 8001dec:	2b08      	cmp	r3, #8
 8001dee:	d84f      	bhi.n	8001e90 <SystemCoreClockUpdate+0xcc>
 8001df0:	68fb      	ldr	r3, [r7, #12]
 8001df2:	2b00      	cmp	r3, #0
 8001df4:	d003      	beq.n	8001dfe <SystemCoreClockUpdate+0x3a>
 8001df6:	68fb      	ldr	r3, [r7, #12]
 8001df8:	2b04      	cmp	r3, #4
 8001dfa:	d004      	beq.n	8001e06 <SystemCoreClockUpdate+0x42>
 8001dfc:	e048      	b.n	8001e90 <SystemCoreClockUpdate+0xcc>
  {
    case RCC_CFGR_SWS_HSI:  /* HSI used as system clock */
      SystemCoreClock = HSI_VALUE;
 8001dfe:	4b30      	ldr	r3, [pc, #192]	@ (8001ec0 <SystemCoreClockUpdate+0xfc>)
 8001e00:	4a30      	ldr	r2, [pc, #192]	@ (8001ec4 <SystemCoreClockUpdate+0x100>)
 8001e02:	601a      	str	r2, [r3, #0]
      break;
 8001e04:	e048      	b.n	8001e98 <SystemCoreClockUpdate+0xd4>
    case RCC_CFGR_SWS_HSE:  /* HSE used as system clock */
      SystemCoreClock = HSE_VALUE;
 8001e06:	4b2e      	ldr	r3, [pc, #184]	@ (8001ec0 <SystemCoreClockUpdate+0xfc>)
 8001e08:	4a2e      	ldr	r2, [pc, #184]	@ (8001ec4 <SystemCoreClockUpdate+0x100>)
 8001e0a:	601a      	str	r2, [r3, #0]
      break;
 8001e0c:	e044      	b.n	8001e98 <SystemCoreClockUpdate+0xd4>
    case RCC_CFGR_SWS_PLL:  /* PLL used as system clock */
      /* Get PLL clock source and multiplication factor ----------------------*/
      pllmull = RCC->CFGR & RCC_CFGR_PLLMUL;
 8001e0e:	4b2b      	ldr	r3, [pc, #172]	@ (8001ebc <SystemCoreClockUpdate+0xf8>)
 8001e10:	685a      	ldr	r2, [r3, #4]
 8001e12:	23f0      	movs	r3, #240	@ 0xf0
 8001e14:	039b      	lsls	r3, r3, #14
 8001e16:	4013      	ands	r3, r2
 8001e18:	60bb      	str	r3, [r7, #8]
      pllsource = RCC->CFGR & RCC_CFGR_PLLSRC;
 8001e1a:	4b28      	ldr	r3, [pc, #160]	@ (8001ebc <SystemCoreClockUpdate+0xf8>)
 8001e1c:	685a      	ldr	r2, [r3, #4]
 8001e1e:	23c0      	movs	r3, #192	@ 0xc0
 8001e20:	025b      	lsls	r3, r3, #9
 8001e22:	4013      	ands	r3, r2
 8001e24:	607b      	str	r3, [r7, #4]
      pllmull = ( pllmull >> 18) + 2;
 8001e26:	68bb      	ldr	r3, [r7, #8]
 8001e28:	0c9b      	lsrs	r3, r3, #18
 8001e2a:	3302      	adds	r3, #2
 8001e2c:	60bb      	str	r3, [r7, #8]
      predivfactor = (RCC->CFGR2 & RCC_CFGR2_PREDIV) + 1;
 8001e2e:	4b23      	ldr	r3, [pc, #140]	@ (8001ebc <SystemCoreClockUpdate+0xf8>)
 8001e30:	6adb      	ldr	r3, [r3, #44]	@ 0x2c
 8001e32:	220f      	movs	r2, #15
 8001e34:	4013      	ands	r3, r2
 8001e36:	3301      	adds	r3, #1
 8001e38:	603b      	str	r3, [r7, #0]

      if (pllsource == RCC_CFGR_PLLSRC_HSE_PREDIV)
 8001e3a:	687a      	ldr	r2, [r7, #4]
 8001e3c:	2380      	movs	r3, #128	@ 0x80
 8001e3e:	025b      	lsls	r3, r3, #9
 8001e40:	429a      	cmp	r2, r3
 8001e42:	d10a      	bne.n	8001e5a <SystemCoreClockUpdate+0x96>
      {
        /* HSE used as PLL clock source : SystemCoreClock = HSE/PREDIV * PLLMUL */
        SystemCoreClock = (HSE_VALUE/predivfactor) * pllmull;
 8001e44:	6839      	ldr	r1, [r7, #0]
 8001e46:	481f      	ldr	r0, [pc, #124]	@ (8001ec4 <SystemCoreClockUpdate+0x100>)
 8001e48:	f7fe f966 	bl	8000118 <__udivsi3>
 8001e4c:	0003      	movs	r3, r0
 8001e4e:	001a      	movs	r2, r3
 8001e50:	68bb      	ldr	r3, [r7, #8]
 8001e52:	435a      	muls	r2, r3
 8001e54:	4b1a      	ldr	r3, [pc, #104]	@ (8001ec0 <SystemCoreClockUpdate+0xfc>)
 8001e56:	601a      	str	r2, [r3, #0]
        SystemCoreClock = (HSI_VALUE >> 1) * pllmull;
#endif /* STM32F042x6 || STM32F048xx || STM32F070x6 || 
          STM32F071xB || STM32F072xB || STM32F078xx || STM32F070xB ||
          STM32F091xC || STM32F098xx || STM32F030xC */
	  }
      break;
 8001e58:	e01e      	b.n	8001e98 <SystemCoreClockUpdate+0xd4>
      else if (pllsource == RCC_CFGR_PLLSRC_HSI48_PREDIV)
 8001e5a:	687a      	ldr	r2, [r7, #4]
 8001e5c:	23c0      	movs	r3, #192	@ 0xc0
 8001e5e:	025b      	lsls	r3, r3, #9
 8001e60:	429a      	cmp	r2, r3
 8001e62:	d10a      	bne.n	8001e7a <SystemCoreClockUpdate+0xb6>
        SystemCoreClock = (HSI48_VALUE/predivfactor) * pllmull;
 8001e64:	6839      	ldr	r1, [r7, #0]
 8001e66:	4818      	ldr	r0, [pc, #96]	@ (8001ec8 <SystemCoreClockUpdate+0x104>)
 8001e68:	f7fe f956 	bl	8000118 <__udivsi3>
 8001e6c:	0003      	movs	r3, r0
 8001e6e:	001a      	movs	r2, r3
 8001e70:	68bb      	ldr	r3, [r7, #8]
 8001e72:	435a      	muls	r2, r3
 8001e74:	4b12      	ldr	r3, [pc, #72]	@ (8001ec0 <SystemCoreClockUpdate+0xfc>)
 8001e76:	601a      	str	r2, [r3, #0]
      break;
 8001e78:	e00e      	b.n	8001e98 <SystemCoreClockUpdate+0xd4>
        SystemCoreClock = (HSI_VALUE/predivfactor) * pllmull;
 8001e7a:	6839      	ldr	r1, [r7, #0]
 8001e7c:	4811      	ldr	r0, [pc, #68]	@ (8001ec4 <SystemCoreClockUpdate+0x100>)
 8001e7e:	f7fe f94b 	bl	8000118 <__udivsi3>
 8001e82:	0003      	movs	r3, r0
 8001e84:	001a      	movs	r2, r3
 8001e86:	68bb      	ldr	r3, [r7, #8]
 8001e88:	435a      	muls	r2, r3
 8001e8a:	4b0d      	ldr	r3, [pc, #52]	@ (8001ec0 <SystemCoreClockUpdate+0xfc>)
 8001e8c:	601a      	str	r2, [r3, #0]
      break;
 8001e8e:	e003      	b.n	8001e98 <SystemCoreClockUpdate+0xd4>
    default: /* HSI used as system clock */
      SystemCoreClock = HSI_VALUE;
 8001e90:	4b0b      	ldr	r3, [pc, #44]	@ (8001ec0 <SystemCoreClockUpdate+0xfc>)
 8001e92:	4a0c      	ldr	r2, [pc, #48]	@ (8001ec4 <SystemCoreClockUpdate+0x100>)
 8001e94:	601a      	str	r2, [r3, #0]
      break;
 8001e96:	46c0      	nop			@ (mov r8, r8)
  }
  /* Compute HCLK clock frequency ----------------*/
  /* Get HCLK prescaler */
  tmp = AHBPrescTable[((RCC->CFGR & RCC_CFGR_HPRE) >> 4)];
 8001e98:	4b08      	ldr	r3, [pc, #32]	@ (8001ebc <SystemCoreClockUpdate+0xf8>)
 8001e9a:	685b      	ldr	r3, [r3, #4]
 8001e9c:	091b      	lsrs	r3, r3, #4
 8001e9e:	220f      	movs	r2, #15
 8001ea0:	4013      	ands	r3, r2
 8001ea2:	4a0a      	ldr	r2, [pc, #40]	@ (8001ecc <SystemCoreClockUpdate+0x108>)
 8001ea4:	5cd3      	ldrb	r3, [r2, r3]
 8001ea6:	60fb      	str	r3, [r7, #12]
  /* HCLK clock frequency */
  SystemCoreClock >>= tmp;
 8001ea8:	4b05      	ldr	r3, [pc, #20]	@ (8001ec0 <SystemCoreClockUpdate+0xfc>)
 8001eaa:	681a      	ldr	r2, [r3, #0]
 8001eac:	68fb      	ldr	r3, [r7, #12]
 8001eae:	40da      	lsrs	r2, r3
 8001eb0:	4b03      	ldr	r3, [pc, #12]	@ (8001ec0 <SystemCoreClockUpdate+0xfc>)
 8001eb2:	601a      	str	r2, [r3, #0]
}
 8001eb4:	46c0      	nop			@ (mov r8, r8)
 8001eb6:	46bd      	mov	sp, r7
 8001eb8:	b004      	add	sp, #16
 8001eba:	bd80      	pop	{r7, pc}
 8001ebc:	40021000 	.word	0x40021000
 8001ec0:	20000024 	.word	0x20000024
 8001ec4:	007a1200 	.word	0x007a1200
 8001ec8:	02dc6c00 	.word	0x02dc6c00
 8001ecc:	08002c54 	.word	0x08002c54

08001ed0 <_ZN16UltrasonicSensorC1EP12GPIO_TypeDeftS1_t>:
#include "hw/Gpio.hpp"
#include "hw/Timebase.hpp"

bool UltrasonicSensor::tim2_inited_ = false;

UltrasonicSensor::UltrasonicSensor(GPIO_TypeDef* trigPort, uint16_t trigPin,
 8001ed0:	b580      	push	{r7, lr}
 8001ed2:	b084      	sub	sp, #16
 8001ed4:	af00      	add	r7, sp, #0
 8001ed6:	60f8      	str	r0, [r7, #12]
 8001ed8:	60b9      	str	r1, [r7, #8]
 8001eda:	603b      	str	r3, [r7, #0]
 8001edc:	1dbb      	adds	r3, r7, #6
 8001ede:	801a      	strh	r2, [r3, #0]
                                   GPIO_TypeDef* echoPort, uint16_t echoPin)
    : pins_{trigPort, trigPin, echoPort, echoPin}
 8001ee0:	68fb      	ldr	r3, [r7, #12]
 8001ee2:	68ba      	ldr	r2, [r7, #8]
 8001ee4:	601a      	str	r2, [r3, #0]
 8001ee6:	68fb      	ldr	r3, [r7, #12]
 8001ee8:	1dba      	adds	r2, r7, #6
 8001eea:	8812      	ldrh	r2, [r2, #0]
 8001eec:	809a      	strh	r2, [r3, #4]
 8001eee:	68fb      	ldr	r3, [r7, #12]
 8001ef0:	683a      	ldr	r2, [r7, #0]
 8001ef2:	609a      	str	r2, [r3, #8]
 8001ef4:	68fa      	ldr	r2, [r7, #12]
 8001ef6:	2318      	movs	r3, #24
 8001ef8:	18fb      	adds	r3, r7, r3
 8001efa:	881b      	ldrh	r3, [r3, #0]
 8001efc:	8193      	strh	r3, [r2, #12]
 8001efe:	68fb      	ldr	r3, [r7, #12]
 8001f00:	2200      	movs	r2, #0
 8001f02:	611a      	str	r2, [r3, #16]
{
}
 8001f04:	68fb      	ldr	r3, [r7, #12]
 8001f06:	0018      	movs	r0, r3
 8001f08:	46bd      	mov	sp, r7
 8001f0a:	b004      	add	sp, #16
 8001f0c:	bd80      	pop	{r7, pc}
	...

08001f10 <_ZN16UltrasonicSensor17tim2Init1MHzOnce_Ev>:

void UltrasonicSensor::tim2Init1MHzOnce_()
{
 8001f10:	b580      	push	{r7, lr}
 8001f12:	b082      	sub	sp, #8
 8001f14:	af00      	add	r7, sp, #0
 8001f16:	6078      	str	r0, [r7, #4]
    if (tim2_inited_) return;
 8001f18:	4b15      	ldr	r3, [pc, #84]	@ (8001f70 <_ZN16UltrasonicSensor17tim2Init1MHzOnce_Ev+0x60>)
 8001f1a:	781b      	ldrb	r3, [r3, #0]
 8001f1c:	2b00      	cmp	r3, #0
 8001f1e:	d122      	bne.n	8001f66 <_ZN16UltrasonicSensor17tim2Init1MHzOnce_Ev+0x56>

    RCC->APB1ENR |= RCC_APB1ENR_TIM2EN;
 8001f20:	4b14      	ldr	r3, [pc, #80]	@ (8001f74 <_ZN16UltrasonicSensor17tim2Init1MHzOnce_Ev+0x64>)
 8001f22:	69da      	ldr	r2, [r3, #28]
 8001f24:	4b13      	ldr	r3, [pc, #76]	@ (8001f74 <_ZN16UltrasonicSensor17tim2Init1MHzOnce_Ev+0x64>)
 8001f26:	2101      	movs	r1, #1
 8001f28:	430a      	orrs	r2, r1
 8001f2a:	61da      	str	r2, [r3, #28]

    TIM2->CR1 = 0;
 8001f2c:	2380      	movs	r3, #128	@ 0x80
 8001f2e:	05db      	lsls	r3, r3, #23
 8001f30:	2200      	movs	r2, #0
 8001f32:	601a      	str	r2, [r3, #0]
    TIM2->PSC = 48 - 1;
 8001f34:	2380      	movs	r3, #128	@ 0x80
 8001f36:	05db      	lsls	r3, r3, #23
 8001f38:	222f      	movs	r2, #47	@ 0x2f
 8001f3a:	629a      	str	r2, [r3, #40]	@ 0x28
    TIM2->ARR = 0xFFFFFFFFu;
 8001f3c:	2380      	movs	r3, #128	@ 0x80
 8001f3e:	05db      	lsls	r3, r3, #23
 8001f40:	2201      	movs	r2, #1
 8001f42:	4252      	negs	r2, r2
 8001f44:	62da      	str	r2, [r3, #44]	@ 0x2c
    TIM2->CNT = 0;
 8001f46:	2380      	movs	r3, #128	@ 0x80
 8001f48:	05db      	lsls	r3, r3, #23
 8001f4a:	2200      	movs	r2, #0
 8001f4c:	625a      	str	r2, [r3, #36]	@ 0x24
    TIM2->CR1 |= TIM_CR1_CEN;
 8001f4e:	2380      	movs	r3, #128	@ 0x80
 8001f50:	05db      	lsls	r3, r3, #23
 8001f52:	681a      	ldr	r2, [r3, #0]
 8001f54:	2380      	movs	r3, #128	@ 0x80
 8001f56:	05db      	lsls	r3, r3, #23
 8001f58:	2101      	movs	r1, #1
 8001f5a:	430a      	orrs	r2, r1
 8001f5c:	601a      	str	r2, [r3, #0]

    tim2_inited_ = true;
 8001f5e:	4b04      	ldr	r3, [pc, #16]	@ (8001f70 <_ZN16UltrasonicSensor17tim2Init1MHzOnce_Ev+0x60>)
 8001f60:	2201      	movs	r2, #1
 8001f62:	701a      	strb	r2, [r3, #0]
 8001f64:	e000      	b.n	8001f68 <_ZN16UltrasonicSensor17tim2Init1MHzOnce_Ev+0x58>
    if (tim2_inited_) return;
 8001f66:	46c0      	nop			@ (mov r8, r8)
}
 8001f68:	46bd      	mov	sp, r7
 8001f6a:	b002      	add	sp, #8
 8001f6c:	bd80      	pop	{r7, pc}
 8001f6e:	46c0      	nop			@ (mov r8, r8)
 8001f70:	200000f4 	.word	0x200000f4
 8001f74:	40021000 	.word	0x40021000

08001f78 <_ZN16UltrasonicSensor6nowUs_Ev>:

uint32_t UltrasonicSensor::nowUs_()
{
 8001f78:	b580      	push	{r7, lr}
 8001f7a:	b082      	sub	sp, #8
 8001f7c:	af00      	add	r7, sp, #0
 8001f7e:	6078      	str	r0, [r7, #4]
    return TIM2->CNT;
 8001f80:	2380      	movs	r3, #128	@ 0x80
 8001f82:	05db      	lsls	r3, r3, #23
 8001f84:	6a5b      	ldr	r3, [r3, #36]	@ 0x24
}
 8001f86:	0018      	movs	r0, r3
 8001f88:	46bd      	mov	sp, r7
 8001f8a:	b002      	add	sp, #8
 8001f8c:	bd80      	pop	{r7, pc}

08001f8e <_ZN16UltrasonicSensor4initEv>:

void UltrasonicSensor::init()
{
 8001f8e:	b580      	push	{r7, lr}
 8001f90:	b082      	sub	sp, #8
 8001f92:	af00      	add	r7, sp, #0
 8001f94:	6078      	str	r0, [r7, #4]
    Clock::enableGpioClock(pins_.trigPort);
 8001f96:	687b      	ldr	r3, [r7, #4]
 8001f98:	681b      	ldr	r3, [r3, #0]
 8001f9a:	0018      	movs	r0, r3
 8001f9c:	f7fe fdd0 	bl	8000b40 <_ZN5Clock15enableGpioClockEP12GPIO_TypeDef>
    Clock::enableGpioClock(pins_.echoPort);
 8001fa0:	687b      	ldr	r3, [r7, #4]
 8001fa2:	689b      	ldr	r3, [r3, #8]
 8001fa4:	0018      	movs	r0, r3
 8001fa6:	f7fe fdcb 	bl	8000b40 <_ZN5Clock15enableGpioClockEP12GPIO_TypeDef>

    Gpio::configureOutput(pins_.trigPort, pins_.trigPin);
 8001faa:	687b      	ldr	r3, [r7, #4]
 8001fac:	681a      	ldr	r2, [r3, #0]
 8001fae:	687b      	ldr	r3, [r7, #4]
 8001fb0:	889b      	ldrh	r3, [r3, #4]
 8001fb2:	0019      	movs	r1, r3
 8001fb4:	0010      	movs	r0, r2
 8001fb6:	f7fe fe11 	bl	8000bdc <_ZN4Gpio15configureOutputEP12GPIO_TypeDeft>
    Gpio::configureInput(pins_.echoPort, pins_.echoPin, Gpio::Pull::Down);
 8001fba:	687b      	ldr	r3, [r7, #4]
 8001fbc:	6898      	ldr	r0, [r3, #8]
 8001fbe:	687b      	ldr	r3, [r7, #4]
 8001fc0:	899b      	ldrh	r3, [r3, #12]
 8001fc2:	2202      	movs	r2, #2
 8001fc4:	0019      	movs	r1, r3
 8001fc6:	f7fe fe6e 	bl	8000ca6 <_ZN4Gpio14configureInputEP12GPIO_TypeDeftNS_4PullE>

    Gpio::setLow(pins_.trigPort, pins_.trigPin);
 8001fca:	687b      	ldr	r3, [r7, #4]
 8001fcc:	681a      	ldr	r2, [r3, #0]
 8001fce:	687b      	ldr	r3, [r7, #4]
 8001fd0:	889b      	ldrh	r3, [r3, #4]
 8001fd2:	0019      	movs	r1, r3
 8001fd4:	0010      	movs	r0, r2
 8001fd6:	f7fe ff62 	bl	8000e9e <_ZN4Gpio6setLowEP12GPIO_TypeDeft>

    Timebase::delayMs(50);
 8001fda:	2032      	movs	r0, #50	@ 0x32
 8001fdc:	f7ff f842 	bl	8001064 <_ZN8Timebase7delayMsEm>
    tim2Init1MHzOnce_();
 8001fe0:	687b      	ldr	r3, [r7, #4]
 8001fe2:	0018      	movs	r0, r3
 8001fe4:	f7ff ff94 	bl	8001f10 <_ZN16UltrasonicSensor17tim2Init1MHzOnce_Ev>

    lastTrigUs_ = nowUs_();
 8001fe8:	687b      	ldr	r3, [r7, #4]
 8001fea:	0018      	movs	r0, r3
 8001fec:	f7ff ffc4 	bl	8001f78 <_ZN16UltrasonicSensor6nowUs_Ev>
 8001ff0:	0002      	movs	r2, r0
 8001ff2:	687b      	ldr	r3, [r7, #4]
 8001ff4:	611a      	str	r2, [r3, #16]
}
 8001ff6:	46c0      	nop			@ (mov r8, r8)
 8001ff8:	46bd      	mov	sp, r7
 8001ffa:	b002      	add	sp, #8
 8001ffc:	bd80      	pop	{r7, pc}
	...

08002000 <_ZN16UltrasonicSensor10guardTime_Ev>:

void UltrasonicSensor::guardTime_()
{
 8002000:	b580      	push	{r7, lr}
 8002002:	b084      	sub	sp, #16
 8002004:	af00      	add	r7, sp, #0
 8002006:	6078      	str	r0, [r7, #4]
    const uint32_t now = nowUs_();
 8002008:	687b      	ldr	r3, [r7, #4]
 800200a:	0018      	movs	r0, r3
 800200c:	f7ff ffb4 	bl	8001f78 <_ZN16UltrasonicSensor6nowUs_Ev>
 8002010:	0003      	movs	r3, r0
 8002012:	60fb      	str	r3, [r7, #12]
    const uint32_t dt  = static_cast<uint32_t>(now - lastTrigUs_);
 8002014:	687b      	ldr	r3, [r7, #4]
 8002016:	691b      	ldr	r3, [r3, #16]
 8002018:	68fa      	ldr	r2, [r7, #12]
 800201a:	1ad3      	subs	r3, r2, r3
 800201c:	60bb      	str	r3, [r7, #8]

    if (dt < kGuardUs)
 800201e:	68bb      	ldr	r3, [r7, #8]
 8002020:	4a06      	ldr	r2, [pc, #24]	@ (800203c <_ZN16UltrasonicSensor10guardTime_Ev+0x3c>)
 8002022:	4293      	cmp	r3, r2
 8002024:	d805      	bhi.n	8002032 <_ZN16UltrasonicSensor10guardTime_Ev+0x32>
    {
        Timebase::delayUs(kGuardUs - dt);
 8002026:	68bb      	ldr	r3, [r7, #8]
 8002028:	4a05      	ldr	r2, [pc, #20]	@ (8002040 <_ZN16UltrasonicSensor10guardTime_Ev+0x40>)
 800202a:	1ad3      	subs	r3, r2, r3
 800202c:	0018      	movs	r0, r3
 800202e:	f7ff f86f 	bl	8001110 <_ZN8Timebase7delayUsEm>
    }
}
 8002032:	46c0      	nop			@ (mov r8, r8)
 8002034:	46bd      	mov	sp, r7
 8002036:	b004      	add	sp, #16
 8002038:	bd80      	pop	{r7, pc}
 800203a:	46c0      	nop			@ (mov r8, r8)
 800203c:	0000ea5f 	.word	0x0000ea5f
 8002040:	0000ea60 	.word	0x0000ea60

08002044 <_ZN16UltrasonicSensor14trigPulse10us_Ev>:

void UltrasonicSensor::trigPulse10us_()
{
 8002044:	b580      	push	{r7, lr}
 8002046:	b082      	sub	sp, #8
 8002048:	af00      	add	r7, sp, #0
 800204a:	6078      	str	r0, [r7, #4]
    guardTime_();
 800204c:	687b      	ldr	r3, [r7, #4]
 800204e:	0018      	movs	r0, r3
 8002050:	f7ff ffd6 	bl	8002000 <_ZN16UltrasonicSensor10guardTime_Ev>

    Gpio::setHigh(pins_.trigPort, pins_.trigPin);
 8002054:	687b      	ldr	r3, [r7, #4]
 8002056:	681a      	ldr	r2, [r3, #0]
 8002058:	687b      	ldr	r3, [r7, #4]
 800205a:	889b      	ldrh	r3, [r3, #4]
 800205c:	0019      	movs	r1, r3
 800205e:	0010      	movs	r0, r2
 8002060:	f7fe ff0e 	bl	8000e80 <_ZN4Gpio7setHighEP12GPIO_TypeDeft>
    Timebase::delayUs(10);
 8002064:	200a      	movs	r0, #10
 8002066:	f7ff f853 	bl	8001110 <_ZN8Timebase7delayUsEm>
    Gpio::setLow(pins_.trigPort, pins_.trigPin);
 800206a:	687b      	ldr	r3, [r7, #4]
 800206c:	681a      	ldr	r2, [r3, #0]
 800206e:	687b      	ldr	r3, [r7, #4]
 8002070:	889b      	ldrh	r3, [r3, #4]
 8002072:	0019      	movs	r1, r3
 8002074:	0010      	movs	r0, r2
 8002076:	f7fe ff12 	bl	8000e9e <_ZN4Gpio6setLowEP12GPIO_TypeDeft>

    lastTrigUs_ = nowUs_();
 800207a:	687b      	ldr	r3, [r7, #4]
 800207c:	0018      	movs	r0, r3
 800207e:	f7ff ff7b 	bl	8001f78 <_ZN16UltrasonicSensor6nowUs_Ev>
 8002082:	0002      	movs	r2, r0
 8002084:	687b      	ldr	r3, [r7, #4]
 8002086:	611a      	str	r2, [r3, #16]
}
 8002088:	46c0      	nop			@ (mov r8, r8)
 800208a:	46bd      	mov	sp, r7
 800208c:	b002      	add	sp, #8
 800208e:	bd80      	pop	{r7, pc}

08002090 <_ZN16UltrasonicSensor13waitForLevel_Ebm>:

bool UltrasonicSensor::waitForLevel_(bool high, uint32_t timeout_us)
{
 8002090:	b580      	push	{r7, lr}
 8002092:	b086      	sub	sp, #24
 8002094:	af00      	add	r7, sp, #0
 8002096:	60f8      	str	r0, [r7, #12]
 8002098:	607a      	str	r2, [r7, #4]
 800209a:	230b      	movs	r3, #11
 800209c:	18fb      	adds	r3, r7, r3
 800209e:	1c0a      	adds	r2, r1, #0
 80020a0:	701a      	strb	r2, [r3, #0]
    const uint32_t t0 = nowUs_();
 80020a2:	68fb      	ldr	r3, [r7, #12]
 80020a4:	0018      	movs	r0, r3
 80020a6:	f7ff ff67 	bl	8001f78 <_ZN16UltrasonicSensor6nowUs_Ev>
 80020aa:	0003      	movs	r3, r0
 80020ac:	617b      	str	r3, [r7, #20]
    while (static_cast<uint32_t>(nowUs_() - t0) < timeout_us)
 80020ae:	e014      	b.n	80020da <_ZN16UltrasonicSensor13waitForLevel_Ebm+0x4a>
    {
        if (Gpio::read(pins_.echoPort, pins_.echoPin) == high)
 80020b0:	68fb      	ldr	r3, [r7, #12]
 80020b2:	689a      	ldr	r2, [r3, #8]
 80020b4:	68fb      	ldr	r3, [r7, #12]
 80020b6:	899b      	ldrh	r3, [r3, #12]
 80020b8:	0019      	movs	r1, r3
 80020ba:	0010      	movs	r0, r2
 80020bc:	f7fe feff 	bl	8000ebe <_ZN4Gpio4readEP12GPIO_TypeDeft>
 80020c0:	0003      	movs	r3, r0
 80020c2:	001a      	movs	r2, r3
 80020c4:	230b      	movs	r3, #11
 80020c6:	18fb      	adds	r3, r7, r3
 80020c8:	781b      	ldrb	r3, [r3, #0]
 80020ca:	1a9b      	subs	r3, r3, r2
 80020cc:	425a      	negs	r2, r3
 80020ce:	4153      	adcs	r3, r2
 80020d0:	b2db      	uxtb	r3, r3
 80020d2:	2b00      	cmp	r3, #0
 80020d4:	d001      	beq.n	80020da <_ZN16UltrasonicSensor13waitForLevel_Ebm+0x4a>
            return true;
 80020d6:	2301      	movs	r3, #1
 80020d8:	e00e      	b.n	80020f8 <_ZN16UltrasonicSensor13waitForLevel_Ebm+0x68>
    while (static_cast<uint32_t>(nowUs_() - t0) < timeout_us)
 80020da:	68fb      	ldr	r3, [r7, #12]
 80020dc:	0018      	movs	r0, r3
 80020de:	f7ff ff4b 	bl	8001f78 <_ZN16UltrasonicSensor6nowUs_Ev>
 80020e2:	0002      	movs	r2, r0
 80020e4:	697b      	ldr	r3, [r7, #20]
 80020e6:	1ad2      	subs	r2, r2, r3
 80020e8:	687b      	ldr	r3, [r7, #4]
 80020ea:	429a      	cmp	r2, r3
 80020ec:	419b      	sbcs	r3, r3
 80020ee:	425b      	negs	r3, r3
 80020f0:	b2db      	uxtb	r3, r3
 80020f2:	2b00      	cmp	r3, #0
 80020f4:	d1dc      	bne.n	80020b0 <_ZN16UltrasonicSensor13waitForLevel_Ebm+0x20>
    }
    return false;
 80020f6:	2300      	movs	r3, #0
}
 80020f8:	0018      	movs	r0, r3
 80020fa:	46bd      	mov	sp, r7
 80020fc:	b006      	add	sp, #24
 80020fe:	bd80      	pop	{r7, pc}

08002100 <_ZN16UltrasonicSensor18measureEchoHighUs_Em>:

uint32_t UltrasonicSensor::measureEchoHighUs_(uint32_t timeout_us)
{
 8002100:	b580      	push	{r7, lr}
 8002102:	b086      	sub	sp, #24
 8002104:	af00      	add	r7, sp, #0
 8002106:	6078      	str	r0, [r7, #4]
 8002108:	6039      	str	r1, [r7, #0]
    const uint32_t wait_rise_us = 3000;
 800210a:	4b1a      	ldr	r3, [pc, #104]	@ (8002174 <_ZN16UltrasonicSensor18measureEchoHighUs_Em+0x74>)
 800210c:	617b      	str	r3, [r7, #20]
    const uint32_t wait_fall_us = timeout_us;
 800210e:	683b      	ldr	r3, [r7, #0]
 8002110:	613b      	str	r3, [r7, #16]

    if (!waitForLevel_(true, wait_rise_us))
 8002112:	4a18      	ldr	r2, [pc, #96]	@ (8002174 <_ZN16UltrasonicSensor18measureEchoHighUs_Em+0x74>)
 8002114:	687b      	ldr	r3, [r7, #4]
 8002116:	2101      	movs	r1, #1
 8002118:	0018      	movs	r0, r3
 800211a:	f7ff ffb9 	bl	8002090 <_ZN16UltrasonicSensor13waitForLevel_Ebm>
 800211e:	0003      	movs	r3, r0
 8002120:	001a      	movs	r2, r3
 8002122:	2301      	movs	r3, #1
 8002124:	4053      	eors	r3, r2
 8002126:	b2db      	uxtb	r3, r3
 8002128:	2b00      	cmp	r3, #0
 800212a:	d001      	beq.n	8002130 <_ZN16UltrasonicSensor18measureEchoHighUs_Em+0x30>
        return 0;
 800212c:	2300      	movs	r3, #0
 800212e:	e01d      	b.n	800216c <_ZN16UltrasonicSensor18measureEchoHighUs_Em+0x6c>

    const uint32_t tRise = nowUs_();
 8002130:	687b      	ldr	r3, [r7, #4]
 8002132:	0018      	movs	r0, r3
 8002134:	f7ff ff20 	bl	8001f78 <_ZN16UltrasonicSensor6nowUs_Ev>
 8002138:	0003      	movs	r3, r0
 800213a:	60fb      	str	r3, [r7, #12]

    if (!waitForLevel_(false, wait_fall_us))
 800213c:	693a      	ldr	r2, [r7, #16]
 800213e:	687b      	ldr	r3, [r7, #4]
 8002140:	2100      	movs	r1, #0
 8002142:	0018      	movs	r0, r3
 8002144:	f7ff ffa4 	bl	8002090 <_ZN16UltrasonicSensor13waitForLevel_Ebm>
 8002148:	0003      	movs	r3, r0
 800214a:	001a      	movs	r2, r3
 800214c:	2301      	movs	r3, #1
 800214e:	4053      	eors	r3, r2
 8002150:	b2db      	uxtb	r3, r3
 8002152:	2b00      	cmp	r3, #0
 8002154:	d001      	beq.n	800215a <_ZN16UltrasonicSensor18measureEchoHighUs_Em+0x5a>
        return 0;
 8002156:	2300      	movs	r3, #0
 8002158:	e008      	b.n	800216c <_ZN16UltrasonicSensor18measureEchoHighUs_Em+0x6c>

    const uint32_t tFall = nowUs_();
 800215a:	687b      	ldr	r3, [r7, #4]
 800215c:	0018      	movs	r0, r3
 800215e:	f7ff ff0b 	bl	8001f78 <_ZN16UltrasonicSensor6nowUs_Ev>
 8002162:	0003      	movs	r3, r0
 8002164:	60bb      	str	r3, [r7, #8]
    return static_cast<uint32_t>(tFall - tRise);
 8002166:	68ba      	ldr	r2, [r7, #8]
 8002168:	68fb      	ldr	r3, [r7, #12]
 800216a:	1ad3      	subs	r3, r2, r3
}
 800216c:	0018      	movs	r0, r3
 800216e:	46bd      	mov	sp, r7
 8002170:	b006      	add	sp, #24
 8002172:	bd80      	pop	{r7, pc}
 8002174:	00000bb8 	.word	0x00000bb8

08002178 <_ZN16UltrasonicSensor7usToMm_Em>:


uint32_t UltrasonicSensor::usToMm_(uint32_t echo_high_us)
{
 8002178:	b580      	push	{r7, lr}
 800217a:	b082      	sub	sp, #8
 800217c:	af00      	add	r7, sp, #0
 800217e:	6078      	str	r0, [r7, #4]
 8002180:	6039      	str	r1, [r7, #0]
    return (echo_high_us * 10u) / 58u;
 8002182:	683a      	ldr	r2, [r7, #0]
 8002184:	0013      	movs	r3, r2
 8002186:	009b      	lsls	r3, r3, #2
 8002188:	189b      	adds	r3, r3, r2
 800218a:	005b      	lsls	r3, r3, #1
 800218c:	213a      	movs	r1, #58	@ 0x3a
 800218e:	0018      	movs	r0, r3
 8002190:	f7fd ffc2 	bl	8000118 <__udivsi3>
 8002194:	0003      	movs	r3, r0
}
 8002196:	0018      	movs	r0, r3
 8002198:	46bd      	mov	sp, r7
 800219a:	b002      	add	sp, #8
 800219c:	bd80      	pop	{r7, pc}
	...

080021a0 <_ZN16UltrasonicSensor11measureOnceERm>:

bool UltrasonicSensor::measureOnce(uint32_t& distance_mm)
{
 80021a0:	b580      	push	{r7, lr}
 80021a2:	b084      	sub	sp, #16
 80021a4:	af00      	add	r7, sp, #0
 80021a6:	6078      	str	r0, [r7, #4]
 80021a8:	6039      	str	r1, [r7, #0]
    distance_mm = 0;
 80021aa:	683b      	ldr	r3, [r7, #0]
 80021ac:	2200      	movs	r2, #0
 80021ae:	601a      	str	r2, [r3, #0]

    trigPulse10us_();
 80021b0:	687b      	ldr	r3, [r7, #4]
 80021b2:	0018      	movs	r0, r3
 80021b4:	f7ff ff46 	bl	8002044 <_ZN16UltrasonicSensor14trigPulse10us_Ev>

    const uint32_t echo_us = measureEchoHighUs_(25000);
 80021b8:	4a0d      	ldr	r2, [pc, #52]	@ (80021f0 <_ZN16UltrasonicSensor11measureOnceERm+0x50>)
 80021ba:	687b      	ldr	r3, [r7, #4]
 80021bc:	0011      	movs	r1, r2
 80021be:	0018      	movs	r0, r3
 80021c0:	f7ff ff9e 	bl	8002100 <_ZN16UltrasonicSensor18measureEchoHighUs_Em>
 80021c4:	0003      	movs	r3, r0
 80021c6:	60fb      	str	r3, [r7, #12]
    if (echo_us == 0)
 80021c8:	68fb      	ldr	r3, [r7, #12]
 80021ca:	2b00      	cmp	r3, #0
 80021cc:	d101      	bne.n	80021d2 <_ZN16UltrasonicSensor11measureOnceERm+0x32>
        return false;
 80021ce:	2300      	movs	r3, #0
 80021d0:	e009      	b.n	80021e6 <_ZN16UltrasonicSensor11measureOnceERm+0x46>

    distance_mm = usToMm_(echo_us);
 80021d2:	68fa      	ldr	r2, [r7, #12]
 80021d4:	687b      	ldr	r3, [r7, #4]
 80021d6:	0011      	movs	r1, r2
 80021d8:	0018      	movs	r0, r3
 80021da:	f7ff ffcd 	bl	8002178 <_ZN16UltrasonicSensor7usToMm_Em>
 80021de:	0002      	movs	r2, r0
 80021e0:	683b      	ldr	r3, [r7, #0]
 80021e2:	601a      	str	r2, [r3, #0]
    return true;
 80021e4:	2301      	movs	r3, #1
}
 80021e6:	0018      	movs	r0, r3
 80021e8:	46bd      	mov	sp, r7
 80021ea:	b004      	add	sp, #16
 80021ec:	bd80      	pop	{r7, pc}
 80021ee:	46c0      	nop			@ (mov r8, r8)
 80021f0:	000061a8 	.word	0x000061a8

080021f4 <Reset_Handler>:

  .section .text.Reset_Handler
  .weak Reset_Handler
  .type Reset_Handler, %function
Reset_Handler:
  ldr   r0, =_estack
 80021f4:	480d      	ldr	r0, [pc, #52]	@ (800222c <LoopForever+0x2>)
  mov   sp, r0          /* set stack pointer */
 80021f6:	4685      	mov	sp, r0
  
/* Call the clock system initialization function.*/
  bl  SystemInit
 80021f8:	f7ff fdde 	bl	8001db8 <SystemInit>

/* Copy the data segment initializers from flash to SRAM */
  ldr r0, =_sdata
 80021fc:	480c      	ldr	r0, [pc, #48]	@ (8002230 <LoopForever+0x6>)
  ldr r1, =_edata
 80021fe:	490d      	ldr	r1, [pc, #52]	@ (8002234 <LoopForever+0xa>)
  ldr r2, =_sidata
 8002200:	4a0d      	ldr	r2, [pc, #52]	@ (8002238 <LoopForever+0xe>)
  movs r3, #0
 8002202:	2300      	movs	r3, #0
  b LoopCopyDataInit
 8002204:	e002      	b.n	800220c <LoopCopyDataInit>

08002206 <CopyDataInit>:

CopyDataInit:
  ldr r4, [r2, r3]
 8002206:	58d4      	ldr	r4, [r2, r3]
  str r4, [r0, r3]
 8002208:	50c4      	str	r4, [r0, r3]
  adds r3, r3, #4
 800220a:	3304      	adds	r3, #4

0800220c <LoopCopyDataInit>:

LoopCopyDataInit:
  adds r4, r0, r3
 800220c:	18c4      	adds	r4, r0, r3
  cmp r4, r1
 800220e:	428c      	cmp	r4, r1
  bcc CopyDataInit
 8002210:	d3f9      	bcc.n	8002206 <CopyDataInit>
  
/* Zero fill the bss segment. */
  ldr r2, =_sbss
 8002212:	4a0a      	ldr	r2, [pc, #40]	@ (800223c <LoopForever+0x12>)
  ldr r4, =_ebss
 8002214:	4c0a      	ldr	r4, [pc, #40]	@ (8002240 <LoopForever+0x16>)
  movs r3, #0
 8002216:	2300      	movs	r3, #0
  b LoopFillZerobss
 8002218:	e001      	b.n	800221e <LoopFillZerobss>

0800221a <FillZerobss>:

FillZerobss:
  str  r3, [r2]
 800221a:	6013      	str	r3, [r2, #0]
  adds r2, r2, #4
 800221c:	3204      	adds	r2, #4

0800221e <LoopFillZerobss>:

LoopFillZerobss:
  cmp r2, r4
 800221e:	42a2      	cmp	r2, r4
  bcc FillZerobss
 8002220:	d3fb      	bcc.n	800221a <FillZerobss>

/* Call static constructors */
  bl __libc_init_array
 8002222:	f000 f84b 	bl	80022bc <__libc_init_array>
/* Call the application's entry point.*/
  bl main
 8002226:	f7ff fc4b 	bl	8001ac0 <main>

0800222a <LoopForever>:

LoopForever:
    b LoopForever
 800222a:	e7fe      	b.n	800222a <LoopForever>
  ldr   r0, =_estack
 800222c:	20008000 	.word	0x20008000
  ldr r0, =_sdata
 8002230:	20000000 	.word	0x20000000
  ldr r1, =_edata
 8002234:	20000078 	.word	0x20000078
  ldr r2, =_sidata
 8002238:	08002ca4 	.word	0x08002ca4
  ldr r2, =_sbss
 800223c:	20000078 	.word	0x20000078
  ldr r4, =_ebss
 8002240:	20000240 	.word	0x20000240

08002244 <ADC1_COMP_IRQHandler>:
 * @retval : None
*/
    .section .text.Default_Handler,"ax",%progbits
Default_Handler:
Infinite_Loop:
  b Infinite_Loop
 8002244:	e7fe      	b.n	8002244 <ADC1_COMP_IRQHandler>
	...

08002248 <sniprintf>:
 8002248:	b40c      	push	{r2, r3}
 800224a:	b530      	push	{r4, r5, lr}
 800224c:	4b17      	ldr	r3, [pc, #92]	@ (80022ac <sniprintf+0x64>)
 800224e:	000c      	movs	r4, r1
 8002250:	681d      	ldr	r5, [r3, #0]
 8002252:	b09d      	sub	sp, #116	@ 0x74
 8002254:	2900      	cmp	r1, #0
 8002256:	da08      	bge.n	800226a <sniprintf+0x22>
 8002258:	238b      	movs	r3, #139	@ 0x8b
 800225a:	2001      	movs	r0, #1
 800225c:	602b      	str	r3, [r5, #0]
 800225e:	4240      	negs	r0, r0
 8002260:	b01d      	add	sp, #116	@ 0x74
 8002262:	bc30      	pop	{r4, r5}
 8002264:	bc08      	pop	{r3}
 8002266:	b002      	add	sp, #8
 8002268:	4718      	bx	r3
 800226a:	2382      	movs	r3, #130	@ 0x82
 800226c:	466a      	mov	r2, sp
 800226e:	009b      	lsls	r3, r3, #2
 8002270:	8293      	strh	r3, [r2, #20]
 8002272:	2300      	movs	r3, #0
 8002274:	9002      	str	r0, [sp, #8]
 8002276:	9006      	str	r0, [sp, #24]
 8002278:	4299      	cmp	r1, r3
 800227a:	d000      	beq.n	800227e <sniprintf+0x36>
 800227c:	1e4b      	subs	r3, r1, #1
 800227e:	9304      	str	r3, [sp, #16]
 8002280:	9307      	str	r3, [sp, #28]
 8002282:	2301      	movs	r3, #1
 8002284:	466a      	mov	r2, sp
 8002286:	425b      	negs	r3, r3
 8002288:	82d3      	strh	r3, [r2, #22]
 800228a:	0028      	movs	r0, r5
 800228c:	ab21      	add	r3, sp, #132	@ 0x84
 800228e:	9a20      	ldr	r2, [sp, #128]	@ 0x80
 8002290:	a902      	add	r1, sp, #8
 8002292:	9301      	str	r3, [sp, #4]
 8002294:	f000 f99e 	bl	80025d4 <_svfiprintf_r>
 8002298:	1c43      	adds	r3, r0, #1
 800229a:	da01      	bge.n	80022a0 <sniprintf+0x58>
 800229c:	238b      	movs	r3, #139	@ 0x8b
 800229e:	602b      	str	r3, [r5, #0]
 80022a0:	2c00      	cmp	r4, #0
 80022a2:	d0dd      	beq.n	8002260 <sniprintf+0x18>
 80022a4:	2200      	movs	r2, #0
 80022a6:	9b02      	ldr	r3, [sp, #8]
 80022a8:	701a      	strb	r2, [r3, #0]
 80022aa:	e7d9      	b.n	8002260 <sniprintf+0x18>
 80022ac:	20000028 	.word	0x20000028

080022b0 <__errno>:
 80022b0:	4b01      	ldr	r3, [pc, #4]	@ (80022b8 <__errno+0x8>)
 80022b2:	6818      	ldr	r0, [r3, #0]
 80022b4:	4770      	bx	lr
 80022b6:	46c0      	nop			@ (mov r8, r8)
 80022b8:	20000028 	.word	0x20000028

080022bc <__libc_init_array>:
 80022bc:	b570      	push	{r4, r5, r6, lr}
 80022be:	2600      	movs	r6, #0
 80022c0:	4c0c      	ldr	r4, [pc, #48]	@ (80022f4 <__libc_init_array+0x38>)
 80022c2:	4d0d      	ldr	r5, [pc, #52]	@ (80022f8 <__libc_init_array+0x3c>)
 80022c4:	1b64      	subs	r4, r4, r5
 80022c6:	10a4      	asrs	r4, r4, #2
 80022c8:	42a6      	cmp	r6, r4
 80022ca:	d109      	bne.n	80022e0 <__libc_init_array+0x24>
 80022cc:	2600      	movs	r6, #0
 80022ce:	f000 fc65 	bl	8002b9c <_init>
 80022d2:	4c0a      	ldr	r4, [pc, #40]	@ (80022fc <__libc_init_array+0x40>)
 80022d4:	4d0a      	ldr	r5, [pc, #40]	@ (8002300 <__libc_init_array+0x44>)
 80022d6:	1b64      	subs	r4, r4, r5
 80022d8:	10a4      	asrs	r4, r4, #2
 80022da:	42a6      	cmp	r6, r4
 80022dc:	d105      	bne.n	80022ea <__libc_init_array+0x2e>
 80022de:	bd70      	pop	{r4, r5, r6, pc}
 80022e0:	00b3      	lsls	r3, r6, #2
 80022e2:	58eb      	ldr	r3, [r5, r3]
 80022e4:	4798      	blx	r3
 80022e6:	3601      	adds	r6, #1
 80022e8:	e7ee      	b.n	80022c8 <__libc_init_array+0xc>
 80022ea:	00b3      	lsls	r3, r6, #2
 80022ec:	58eb      	ldr	r3, [r5, r3]
 80022ee:	4798      	blx	r3
 80022f0:	3601      	adds	r6, #1
 80022f2:	e7f2      	b.n	80022da <__libc_init_array+0x1e>
 80022f4:	08002c98 	.word	0x08002c98
 80022f8:	08002c98 	.word	0x08002c98
 80022fc:	08002ca0 	.word	0x08002ca0
 8002300:	08002c98 	.word	0x08002c98

08002304 <__retarget_lock_acquire_recursive>:
 8002304:	4770      	bx	lr

08002306 <__retarget_lock_release_recursive>:
 8002306:	4770      	bx	lr

08002308 <memcpy>:
 8002308:	2300      	movs	r3, #0
 800230a:	b510      	push	{r4, lr}
 800230c:	429a      	cmp	r2, r3
 800230e:	d100      	bne.n	8002312 <memcpy+0xa>
 8002310:	bd10      	pop	{r4, pc}
 8002312:	5ccc      	ldrb	r4, [r1, r3]
 8002314:	54c4      	strb	r4, [r0, r3]
 8002316:	3301      	adds	r3, #1
 8002318:	e7f8      	b.n	800230c <memcpy+0x4>
	...

0800231c <_free_r>:
 800231c:	b570      	push	{r4, r5, r6, lr}
 800231e:	0005      	movs	r5, r0
 8002320:	1e0c      	subs	r4, r1, #0
 8002322:	d010      	beq.n	8002346 <_free_r+0x2a>
 8002324:	3c04      	subs	r4, #4
 8002326:	6823      	ldr	r3, [r4, #0]
 8002328:	2b00      	cmp	r3, #0
 800232a:	da00      	bge.n	800232e <_free_r+0x12>
 800232c:	18e4      	adds	r4, r4, r3
 800232e:	0028      	movs	r0, r5
 8002330:	f000 f8e0 	bl	80024f4 <__malloc_lock>
 8002334:	4a1d      	ldr	r2, [pc, #116]	@ (80023ac <_free_r+0x90>)
 8002336:	6813      	ldr	r3, [r2, #0]
 8002338:	2b00      	cmp	r3, #0
 800233a:	d105      	bne.n	8002348 <_free_r+0x2c>
 800233c:	6063      	str	r3, [r4, #4]
 800233e:	6014      	str	r4, [r2, #0]
 8002340:	0028      	movs	r0, r5
 8002342:	f000 f8df 	bl	8002504 <__malloc_unlock>
 8002346:	bd70      	pop	{r4, r5, r6, pc}
 8002348:	42a3      	cmp	r3, r4
 800234a:	d908      	bls.n	800235e <_free_r+0x42>
 800234c:	6820      	ldr	r0, [r4, #0]
 800234e:	1821      	adds	r1, r4, r0
 8002350:	428b      	cmp	r3, r1
 8002352:	d1f3      	bne.n	800233c <_free_r+0x20>
 8002354:	6819      	ldr	r1, [r3, #0]
 8002356:	685b      	ldr	r3, [r3, #4]
 8002358:	1809      	adds	r1, r1, r0
 800235a:	6021      	str	r1, [r4, #0]
 800235c:	e7ee      	b.n	800233c <_free_r+0x20>
 800235e:	001a      	movs	r2, r3
 8002360:	685b      	ldr	r3, [r3, #4]
 8002362:	2b00      	cmp	r3, #0
 8002364:	d001      	beq.n	800236a <_free_r+0x4e>
 8002366:	42a3      	cmp	r3, r4
 8002368:	d9f9      	bls.n	800235e <_free_r+0x42>
 800236a:	6811      	ldr	r1, [r2, #0]
 800236c:	1850      	adds	r0, r2, r1
 800236e:	42a0      	cmp	r0, r4
 8002370:	d10b      	bne.n	800238a <_free_r+0x6e>
 8002372:	6820      	ldr	r0, [r4, #0]
 8002374:	1809      	adds	r1, r1, r0
 8002376:	1850      	adds	r0, r2, r1
 8002378:	6011      	str	r1, [r2, #0]
 800237a:	4283      	cmp	r3, r0
 800237c:	d1e0      	bne.n	8002340 <_free_r+0x24>
 800237e:	6818      	ldr	r0, [r3, #0]
 8002380:	685b      	ldr	r3, [r3, #4]
 8002382:	1841      	adds	r1, r0, r1
 8002384:	6011      	str	r1, [r2, #0]
 8002386:	6053      	str	r3, [r2, #4]
 8002388:	e7da      	b.n	8002340 <_free_r+0x24>
 800238a:	42a0      	cmp	r0, r4
 800238c:	d902      	bls.n	8002394 <_free_r+0x78>
 800238e:	230c      	movs	r3, #12
 8002390:	602b      	str	r3, [r5, #0]
 8002392:	e7d5      	b.n	8002340 <_free_r+0x24>
 8002394:	6820      	ldr	r0, [r4, #0]
 8002396:	1821      	adds	r1, r4, r0
 8002398:	428b      	cmp	r3, r1
 800239a:	d103      	bne.n	80023a4 <_free_r+0x88>
 800239c:	6819      	ldr	r1, [r3, #0]
 800239e:	685b      	ldr	r3, [r3, #4]
 80023a0:	1809      	adds	r1, r1, r0
 80023a2:	6021      	str	r1, [r4, #0]
 80023a4:	6063      	str	r3, [r4, #4]
 80023a6:	6054      	str	r4, [r2, #4]
 80023a8:	e7ca      	b.n	8002340 <_free_r+0x24>
 80023aa:	46c0      	nop			@ (mov r8, r8)
 80023ac:	2000023c 	.word	0x2000023c

080023b0 <sbrk_aligned>:
 80023b0:	b570      	push	{r4, r5, r6, lr}
 80023b2:	4e0f      	ldr	r6, [pc, #60]	@ (80023f0 <sbrk_aligned+0x40>)
 80023b4:	000d      	movs	r5, r1
 80023b6:	6831      	ldr	r1, [r6, #0]
 80023b8:	0004      	movs	r4, r0
 80023ba:	2900      	cmp	r1, #0
 80023bc:	d102      	bne.n	80023c4 <sbrk_aligned+0x14>
 80023be:	f000 fb99 	bl	8002af4 <_sbrk_r>
 80023c2:	6030      	str	r0, [r6, #0]
 80023c4:	0029      	movs	r1, r5
 80023c6:	0020      	movs	r0, r4
 80023c8:	f000 fb94 	bl	8002af4 <_sbrk_r>
 80023cc:	1c43      	adds	r3, r0, #1
 80023ce:	d103      	bne.n	80023d8 <sbrk_aligned+0x28>
 80023d0:	2501      	movs	r5, #1
 80023d2:	426d      	negs	r5, r5
 80023d4:	0028      	movs	r0, r5
 80023d6:	bd70      	pop	{r4, r5, r6, pc}
 80023d8:	2303      	movs	r3, #3
 80023da:	1cc5      	adds	r5, r0, #3
 80023dc:	439d      	bics	r5, r3
 80023de:	42a8      	cmp	r0, r5
 80023e0:	d0f8      	beq.n	80023d4 <sbrk_aligned+0x24>
 80023e2:	1a29      	subs	r1, r5, r0
 80023e4:	0020      	movs	r0, r4
 80023e6:	f000 fb85 	bl	8002af4 <_sbrk_r>
 80023ea:	3001      	adds	r0, #1
 80023ec:	d1f2      	bne.n	80023d4 <sbrk_aligned+0x24>
 80023ee:	e7ef      	b.n	80023d0 <sbrk_aligned+0x20>
 80023f0:	20000238 	.word	0x20000238

080023f4 <_malloc_r>:
 80023f4:	b5f7      	push	{r0, r1, r2, r4, r5, r6, r7, lr}
 80023f6:	2203      	movs	r2, #3
 80023f8:	1ccb      	adds	r3, r1, #3
 80023fa:	4393      	bics	r3, r2
 80023fc:	3308      	adds	r3, #8
 80023fe:	0005      	movs	r5, r0
 8002400:	001f      	movs	r7, r3
 8002402:	2b0c      	cmp	r3, #12
 8002404:	d234      	bcs.n	8002470 <_malloc_r+0x7c>
 8002406:	270c      	movs	r7, #12
 8002408:	42b9      	cmp	r1, r7
 800240a:	d833      	bhi.n	8002474 <_malloc_r+0x80>
 800240c:	0028      	movs	r0, r5
 800240e:	f000 f871 	bl	80024f4 <__malloc_lock>
 8002412:	4e37      	ldr	r6, [pc, #220]	@ (80024f0 <_malloc_r+0xfc>)
 8002414:	6833      	ldr	r3, [r6, #0]
 8002416:	001c      	movs	r4, r3
 8002418:	2c00      	cmp	r4, #0
 800241a:	d12f      	bne.n	800247c <_malloc_r+0x88>
 800241c:	0039      	movs	r1, r7
 800241e:	0028      	movs	r0, r5
 8002420:	f7ff ffc6 	bl	80023b0 <sbrk_aligned>
 8002424:	0004      	movs	r4, r0
 8002426:	1c43      	adds	r3, r0, #1
 8002428:	d15f      	bne.n	80024ea <_malloc_r+0xf6>
 800242a:	6834      	ldr	r4, [r6, #0]
 800242c:	9400      	str	r4, [sp, #0]
 800242e:	9b00      	ldr	r3, [sp, #0]
 8002430:	2b00      	cmp	r3, #0
 8002432:	d14a      	bne.n	80024ca <_malloc_r+0xd6>
 8002434:	2c00      	cmp	r4, #0
 8002436:	d052      	beq.n	80024de <_malloc_r+0xea>
 8002438:	6823      	ldr	r3, [r4, #0]
 800243a:	0028      	movs	r0, r5
 800243c:	18e3      	adds	r3, r4, r3
 800243e:	9900      	ldr	r1, [sp, #0]
 8002440:	9301      	str	r3, [sp, #4]
 8002442:	f000 fb57 	bl	8002af4 <_sbrk_r>
 8002446:	9b01      	ldr	r3, [sp, #4]
 8002448:	4283      	cmp	r3, r0
 800244a:	d148      	bne.n	80024de <_malloc_r+0xea>
 800244c:	6823      	ldr	r3, [r4, #0]
 800244e:	0028      	movs	r0, r5
 8002450:	1aff      	subs	r7, r7, r3
 8002452:	0039      	movs	r1, r7
 8002454:	f7ff ffac 	bl	80023b0 <sbrk_aligned>
 8002458:	3001      	adds	r0, #1
 800245a:	d040      	beq.n	80024de <_malloc_r+0xea>
 800245c:	6823      	ldr	r3, [r4, #0]
 800245e:	19db      	adds	r3, r3, r7
 8002460:	6023      	str	r3, [r4, #0]
 8002462:	6833      	ldr	r3, [r6, #0]
 8002464:	685a      	ldr	r2, [r3, #4]
 8002466:	2a00      	cmp	r2, #0
 8002468:	d133      	bne.n	80024d2 <_malloc_r+0xde>
 800246a:	9b00      	ldr	r3, [sp, #0]
 800246c:	6033      	str	r3, [r6, #0]
 800246e:	e019      	b.n	80024a4 <_malloc_r+0xb0>
 8002470:	2b00      	cmp	r3, #0
 8002472:	dac9      	bge.n	8002408 <_malloc_r+0x14>
 8002474:	230c      	movs	r3, #12
 8002476:	602b      	str	r3, [r5, #0]
 8002478:	2000      	movs	r0, #0
 800247a:	bdfe      	pop	{r1, r2, r3, r4, r5, r6, r7, pc}
 800247c:	6821      	ldr	r1, [r4, #0]
 800247e:	1bc9      	subs	r1, r1, r7
 8002480:	d420      	bmi.n	80024c4 <_malloc_r+0xd0>
 8002482:	290b      	cmp	r1, #11
 8002484:	d90a      	bls.n	800249c <_malloc_r+0xa8>
 8002486:	19e2      	adds	r2, r4, r7
 8002488:	6027      	str	r7, [r4, #0]
 800248a:	42a3      	cmp	r3, r4
 800248c:	d104      	bne.n	8002498 <_malloc_r+0xa4>
 800248e:	6032      	str	r2, [r6, #0]
 8002490:	6863      	ldr	r3, [r4, #4]
 8002492:	6011      	str	r1, [r2, #0]
 8002494:	6053      	str	r3, [r2, #4]
 8002496:	e005      	b.n	80024a4 <_malloc_r+0xb0>
 8002498:	605a      	str	r2, [r3, #4]
 800249a:	e7f9      	b.n	8002490 <_malloc_r+0x9c>
 800249c:	6862      	ldr	r2, [r4, #4]
 800249e:	42a3      	cmp	r3, r4
 80024a0:	d10e      	bne.n	80024c0 <_malloc_r+0xcc>
 80024a2:	6032      	str	r2, [r6, #0]
 80024a4:	0028      	movs	r0, r5
 80024a6:	f000 f82d 	bl	8002504 <__malloc_unlock>
 80024aa:	0020      	movs	r0, r4
 80024ac:	2207      	movs	r2, #7
 80024ae:	300b      	adds	r0, #11
 80024b0:	1d23      	adds	r3, r4, #4
 80024b2:	4390      	bics	r0, r2
 80024b4:	1ac2      	subs	r2, r0, r3
 80024b6:	4298      	cmp	r0, r3
 80024b8:	d0df      	beq.n	800247a <_malloc_r+0x86>
 80024ba:	1a1b      	subs	r3, r3, r0
 80024bc:	50a3      	str	r3, [r4, r2]
 80024be:	e7dc      	b.n	800247a <_malloc_r+0x86>
 80024c0:	605a      	str	r2, [r3, #4]
 80024c2:	e7ef      	b.n	80024a4 <_malloc_r+0xb0>
 80024c4:	0023      	movs	r3, r4
 80024c6:	6864      	ldr	r4, [r4, #4]
 80024c8:	e7a6      	b.n	8002418 <_malloc_r+0x24>
 80024ca:	9c00      	ldr	r4, [sp, #0]
 80024cc:	6863      	ldr	r3, [r4, #4]
 80024ce:	9300      	str	r3, [sp, #0]
 80024d0:	e7ad      	b.n	800242e <_malloc_r+0x3a>
 80024d2:	001a      	movs	r2, r3
 80024d4:	685b      	ldr	r3, [r3, #4]
 80024d6:	42a3      	cmp	r3, r4
 80024d8:	d1fb      	bne.n	80024d2 <_malloc_r+0xde>
 80024da:	2300      	movs	r3, #0
 80024dc:	e7da      	b.n	8002494 <_malloc_r+0xa0>
 80024de:	230c      	movs	r3, #12
 80024e0:	0028      	movs	r0, r5
 80024e2:	602b      	str	r3, [r5, #0]
 80024e4:	f000 f80e 	bl	8002504 <__malloc_unlock>
 80024e8:	e7c6      	b.n	8002478 <_malloc_r+0x84>
 80024ea:	6007      	str	r7, [r0, #0]
 80024ec:	e7da      	b.n	80024a4 <_malloc_r+0xb0>
 80024ee:	46c0      	nop			@ (mov r8, r8)
 80024f0:	2000023c 	.word	0x2000023c

080024f4 <__malloc_lock>:
 80024f4:	b510      	push	{r4, lr}
 80024f6:	4802      	ldr	r0, [pc, #8]	@ (8002500 <__malloc_lock+0xc>)
 80024f8:	f7ff ff04 	bl	8002304 <__retarget_lock_acquire_recursive>
 80024fc:	bd10      	pop	{r4, pc}
 80024fe:	46c0      	nop			@ (mov r8, r8)
 8002500:	20000234 	.word	0x20000234

08002504 <__malloc_unlock>:
 8002504:	b510      	push	{r4, lr}
 8002506:	4802      	ldr	r0, [pc, #8]	@ (8002510 <__malloc_unlock+0xc>)
 8002508:	f7ff fefd 	bl	8002306 <__retarget_lock_release_recursive>
 800250c:	bd10      	pop	{r4, pc}
 800250e:	46c0      	nop			@ (mov r8, r8)
 8002510:	20000234 	.word	0x20000234

08002514 <__ssputs_r>:
 8002514:	b5f0      	push	{r4, r5, r6, r7, lr}
 8002516:	688e      	ldr	r6, [r1, #8]
 8002518:	b085      	sub	sp, #20
 800251a:	001f      	movs	r7, r3
 800251c:	000c      	movs	r4, r1
 800251e:	680b      	ldr	r3, [r1, #0]
 8002520:	9002      	str	r0, [sp, #8]
 8002522:	9203      	str	r2, [sp, #12]
 8002524:	42be      	cmp	r6, r7
 8002526:	d830      	bhi.n	800258a <__ssputs_r+0x76>
 8002528:	210c      	movs	r1, #12
 800252a:	5e62      	ldrsh	r2, [r4, r1]
 800252c:	2190      	movs	r1, #144	@ 0x90
 800252e:	00c9      	lsls	r1, r1, #3
 8002530:	420a      	tst	r2, r1
 8002532:	d028      	beq.n	8002586 <__ssputs_r+0x72>
 8002534:	2003      	movs	r0, #3
 8002536:	6921      	ldr	r1, [r4, #16]
 8002538:	1a5b      	subs	r3, r3, r1
 800253a:	9301      	str	r3, [sp, #4]
 800253c:	6963      	ldr	r3, [r4, #20]
 800253e:	4343      	muls	r3, r0
 8002540:	9801      	ldr	r0, [sp, #4]
 8002542:	0fdd      	lsrs	r5, r3, #31
 8002544:	18ed      	adds	r5, r5, r3
 8002546:	1c7b      	adds	r3, r7, #1
 8002548:	181b      	adds	r3, r3, r0
 800254a:	106d      	asrs	r5, r5, #1
 800254c:	42ab      	cmp	r3, r5
 800254e:	d900      	bls.n	8002552 <__ssputs_r+0x3e>
 8002550:	001d      	movs	r5, r3
 8002552:	0552      	lsls	r2, r2, #21
 8002554:	d528      	bpl.n	80025a8 <__ssputs_r+0x94>
 8002556:	0029      	movs	r1, r5
 8002558:	9802      	ldr	r0, [sp, #8]
 800255a:	f7ff ff4b 	bl	80023f4 <_malloc_r>
 800255e:	1e06      	subs	r6, r0, #0
 8002560:	d02c      	beq.n	80025bc <__ssputs_r+0xa8>
 8002562:	9a01      	ldr	r2, [sp, #4]
 8002564:	6921      	ldr	r1, [r4, #16]
 8002566:	f7ff fecf 	bl	8002308 <memcpy>
 800256a:	89a2      	ldrh	r2, [r4, #12]
 800256c:	4b18      	ldr	r3, [pc, #96]	@ (80025d0 <__ssputs_r+0xbc>)
 800256e:	401a      	ands	r2, r3
 8002570:	2380      	movs	r3, #128	@ 0x80
 8002572:	4313      	orrs	r3, r2
 8002574:	81a3      	strh	r3, [r4, #12]
 8002576:	9b01      	ldr	r3, [sp, #4]
 8002578:	6126      	str	r6, [r4, #16]
 800257a:	18f6      	adds	r6, r6, r3
 800257c:	6026      	str	r6, [r4, #0]
 800257e:	003e      	movs	r6, r7
 8002580:	6165      	str	r5, [r4, #20]
 8002582:	1aed      	subs	r5, r5, r3
 8002584:	60a5      	str	r5, [r4, #8]
 8002586:	42be      	cmp	r6, r7
 8002588:	d900      	bls.n	800258c <__ssputs_r+0x78>
 800258a:	003e      	movs	r6, r7
 800258c:	0032      	movs	r2, r6
 800258e:	9903      	ldr	r1, [sp, #12]
 8002590:	6820      	ldr	r0, [r4, #0]
 8002592:	f000 fa9b 	bl	8002acc <memmove>
 8002596:	2000      	movs	r0, #0
 8002598:	68a3      	ldr	r3, [r4, #8]
 800259a:	1b9b      	subs	r3, r3, r6
 800259c:	60a3      	str	r3, [r4, #8]
 800259e:	6823      	ldr	r3, [r4, #0]
 80025a0:	199b      	adds	r3, r3, r6
 80025a2:	6023      	str	r3, [r4, #0]
 80025a4:	b005      	add	sp, #20
 80025a6:	bdf0      	pop	{r4, r5, r6, r7, pc}
 80025a8:	002a      	movs	r2, r5
 80025aa:	9802      	ldr	r0, [sp, #8]
 80025ac:	f000 fabf 	bl	8002b2e <_realloc_r>
 80025b0:	1e06      	subs	r6, r0, #0
 80025b2:	d1e0      	bne.n	8002576 <__ssputs_r+0x62>
 80025b4:	6921      	ldr	r1, [r4, #16]
 80025b6:	9802      	ldr	r0, [sp, #8]
 80025b8:	f7ff feb0 	bl	800231c <_free_r>
 80025bc:	230c      	movs	r3, #12
 80025be:	2001      	movs	r0, #1
 80025c0:	9a02      	ldr	r2, [sp, #8]
 80025c2:	4240      	negs	r0, r0
 80025c4:	6013      	str	r3, [r2, #0]
 80025c6:	89a2      	ldrh	r2, [r4, #12]
 80025c8:	3334      	adds	r3, #52	@ 0x34
 80025ca:	4313      	orrs	r3, r2
 80025cc:	81a3      	strh	r3, [r4, #12]
 80025ce:	e7e9      	b.n	80025a4 <__ssputs_r+0x90>
 80025d0:	fffffb7f 	.word	0xfffffb7f

080025d4 <_svfiprintf_r>:
 80025d4:	b5f0      	push	{r4, r5, r6, r7, lr}
 80025d6:	b0a1      	sub	sp, #132	@ 0x84
 80025d8:	9003      	str	r0, [sp, #12]
 80025da:	001d      	movs	r5, r3
 80025dc:	898b      	ldrh	r3, [r1, #12]
 80025de:	000f      	movs	r7, r1
 80025e0:	0016      	movs	r6, r2
 80025e2:	061b      	lsls	r3, r3, #24
 80025e4:	d511      	bpl.n	800260a <_svfiprintf_r+0x36>
 80025e6:	690b      	ldr	r3, [r1, #16]
 80025e8:	2b00      	cmp	r3, #0
 80025ea:	d10e      	bne.n	800260a <_svfiprintf_r+0x36>
 80025ec:	2140      	movs	r1, #64	@ 0x40
 80025ee:	f7ff ff01 	bl	80023f4 <_malloc_r>
 80025f2:	6038      	str	r0, [r7, #0]
 80025f4:	6138      	str	r0, [r7, #16]
 80025f6:	2800      	cmp	r0, #0
 80025f8:	d105      	bne.n	8002606 <_svfiprintf_r+0x32>
 80025fa:	230c      	movs	r3, #12
 80025fc:	9a03      	ldr	r2, [sp, #12]
 80025fe:	6013      	str	r3, [r2, #0]
 8002600:	2001      	movs	r0, #1
 8002602:	4240      	negs	r0, r0
 8002604:	e0cf      	b.n	80027a6 <_svfiprintf_r+0x1d2>
 8002606:	2340      	movs	r3, #64	@ 0x40
 8002608:	617b      	str	r3, [r7, #20]
 800260a:	2300      	movs	r3, #0
 800260c:	ac08      	add	r4, sp, #32
 800260e:	6163      	str	r3, [r4, #20]
 8002610:	3320      	adds	r3, #32
 8002612:	7663      	strb	r3, [r4, #25]
 8002614:	3310      	adds	r3, #16
 8002616:	76a3      	strb	r3, [r4, #26]
 8002618:	9507      	str	r5, [sp, #28]
 800261a:	0035      	movs	r5, r6
 800261c:	782b      	ldrb	r3, [r5, #0]
 800261e:	2b00      	cmp	r3, #0
 8002620:	d001      	beq.n	8002626 <_svfiprintf_r+0x52>
 8002622:	2b25      	cmp	r3, #37	@ 0x25
 8002624:	d148      	bne.n	80026b8 <_svfiprintf_r+0xe4>
 8002626:	1bab      	subs	r3, r5, r6
 8002628:	9305      	str	r3, [sp, #20]
 800262a:	42b5      	cmp	r5, r6
 800262c:	d00b      	beq.n	8002646 <_svfiprintf_r+0x72>
 800262e:	0032      	movs	r2, r6
 8002630:	0039      	movs	r1, r7
 8002632:	9803      	ldr	r0, [sp, #12]
 8002634:	f7ff ff6e 	bl	8002514 <__ssputs_r>
 8002638:	3001      	adds	r0, #1
 800263a:	d100      	bne.n	800263e <_svfiprintf_r+0x6a>
 800263c:	e0ae      	b.n	800279c <_svfiprintf_r+0x1c8>
 800263e:	6963      	ldr	r3, [r4, #20]
 8002640:	9a05      	ldr	r2, [sp, #20]
 8002642:	189b      	adds	r3, r3, r2
 8002644:	6163      	str	r3, [r4, #20]
 8002646:	782b      	ldrb	r3, [r5, #0]
 8002648:	2b00      	cmp	r3, #0
 800264a:	d100      	bne.n	800264e <_svfiprintf_r+0x7a>
 800264c:	e0a6      	b.n	800279c <_svfiprintf_r+0x1c8>
 800264e:	2201      	movs	r2, #1
 8002650:	2300      	movs	r3, #0
 8002652:	4252      	negs	r2, r2
 8002654:	6062      	str	r2, [r4, #4]
 8002656:	a904      	add	r1, sp, #16
 8002658:	3254      	adds	r2, #84	@ 0x54
 800265a:	1852      	adds	r2, r2, r1
 800265c:	1c6e      	adds	r6, r5, #1
 800265e:	6023      	str	r3, [r4, #0]
 8002660:	60e3      	str	r3, [r4, #12]
 8002662:	60a3      	str	r3, [r4, #8]
 8002664:	7013      	strb	r3, [r2, #0]
 8002666:	65a3      	str	r3, [r4, #88]	@ 0x58
 8002668:	4b54      	ldr	r3, [pc, #336]	@ (80027bc <_svfiprintf_r+0x1e8>)
 800266a:	2205      	movs	r2, #5
 800266c:	0018      	movs	r0, r3
 800266e:	7831      	ldrb	r1, [r6, #0]
 8002670:	9305      	str	r3, [sp, #20]
 8002672:	f000 fa51 	bl	8002b18 <memchr>
 8002676:	1c75      	adds	r5, r6, #1
 8002678:	2800      	cmp	r0, #0
 800267a:	d11f      	bne.n	80026bc <_svfiprintf_r+0xe8>
 800267c:	6822      	ldr	r2, [r4, #0]
 800267e:	06d3      	lsls	r3, r2, #27
 8002680:	d504      	bpl.n	800268c <_svfiprintf_r+0xb8>
 8002682:	2353      	movs	r3, #83	@ 0x53
 8002684:	a904      	add	r1, sp, #16
 8002686:	185b      	adds	r3, r3, r1
 8002688:	2120      	movs	r1, #32
 800268a:	7019      	strb	r1, [r3, #0]
 800268c:	0713      	lsls	r3, r2, #28
 800268e:	d504      	bpl.n	800269a <_svfiprintf_r+0xc6>
 8002690:	2353      	movs	r3, #83	@ 0x53
 8002692:	a904      	add	r1, sp, #16
 8002694:	185b      	adds	r3, r3, r1
 8002696:	212b      	movs	r1, #43	@ 0x2b
 8002698:	7019      	strb	r1, [r3, #0]
 800269a:	7833      	ldrb	r3, [r6, #0]
 800269c:	2b2a      	cmp	r3, #42	@ 0x2a
 800269e:	d016      	beq.n	80026ce <_svfiprintf_r+0xfa>
 80026a0:	0035      	movs	r5, r6
 80026a2:	2100      	movs	r1, #0
 80026a4:	200a      	movs	r0, #10
 80026a6:	68e3      	ldr	r3, [r4, #12]
 80026a8:	782a      	ldrb	r2, [r5, #0]
 80026aa:	1c6e      	adds	r6, r5, #1
 80026ac:	3a30      	subs	r2, #48	@ 0x30
 80026ae:	2a09      	cmp	r2, #9
 80026b0:	d950      	bls.n	8002754 <_svfiprintf_r+0x180>
 80026b2:	2900      	cmp	r1, #0
 80026b4:	d111      	bne.n	80026da <_svfiprintf_r+0x106>
 80026b6:	e017      	b.n	80026e8 <_svfiprintf_r+0x114>
 80026b8:	3501      	adds	r5, #1
 80026ba:	e7af      	b.n	800261c <_svfiprintf_r+0x48>
 80026bc:	9b05      	ldr	r3, [sp, #20]
 80026be:	6822      	ldr	r2, [r4, #0]
 80026c0:	1ac0      	subs	r0, r0, r3
 80026c2:	2301      	movs	r3, #1
 80026c4:	4083      	lsls	r3, r0
 80026c6:	4313      	orrs	r3, r2
 80026c8:	002e      	movs	r6, r5
 80026ca:	6023      	str	r3, [r4, #0]
 80026cc:	e7cc      	b.n	8002668 <_svfiprintf_r+0x94>
 80026ce:	9b07      	ldr	r3, [sp, #28]
 80026d0:	1d19      	adds	r1, r3, #4
 80026d2:	681b      	ldr	r3, [r3, #0]
 80026d4:	9107      	str	r1, [sp, #28]
 80026d6:	2b00      	cmp	r3, #0
 80026d8:	db01      	blt.n	80026de <_svfiprintf_r+0x10a>
 80026da:	930b      	str	r3, [sp, #44]	@ 0x2c
 80026dc:	e004      	b.n	80026e8 <_svfiprintf_r+0x114>
 80026de:	425b      	negs	r3, r3
 80026e0:	60e3      	str	r3, [r4, #12]
 80026e2:	2302      	movs	r3, #2
 80026e4:	4313      	orrs	r3, r2
 80026e6:	6023      	str	r3, [r4, #0]
 80026e8:	782b      	ldrb	r3, [r5, #0]
 80026ea:	2b2e      	cmp	r3, #46	@ 0x2e
 80026ec:	d10c      	bne.n	8002708 <_svfiprintf_r+0x134>
 80026ee:	786b      	ldrb	r3, [r5, #1]
 80026f0:	2b2a      	cmp	r3, #42	@ 0x2a
 80026f2:	d134      	bne.n	800275e <_svfiprintf_r+0x18a>
 80026f4:	9b07      	ldr	r3, [sp, #28]
 80026f6:	3502      	adds	r5, #2
 80026f8:	1d1a      	adds	r2, r3, #4
 80026fa:	681b      	ldr	r3, [r3, #0]
 80026fc:	9207      	str	r2, [sp, #28]
 80026fe:	2b00      	cmp	r3, #0
 8002700:	da01      	bge.n	8002706 <_svfiprintf_r+0x132>
 8002702:	2301      	movs	r3, #1
 8002704:	425b      	negs	r3, r3
 8002706:	9309      	str	r3, [sp, #36]	@ 0x24
 8002708:	4e2d      	ldr	r6, [pc, #180]	@ (80027c0 <_svfiprintf_r+0x1ec>)
 800270a:	2203      	movs	r2, #3
 800270c:	0030      	movs	r0, r6
 800270e:	7829      	ldrb	r1, [r5, #0]
 8002710:	f000 fa02 	bl	8002b18 <memchr>
 8002714:	2800      	cmp	r0, #0
 8002716:	d006      	beq.n	8002726 <_svfiprintf_r+0x152>
 8002718:	2340      	movs	r3, #64	@ 0x40
 800271a:	1b80      	subs	r0, r0, r6
 800271c:	4083      	lsls	r3, r0
 800271e:	6822      	ldr	r2, [r4, #0]
 8002720:	3501      	adds	r5, #1
 8002722:	4313      	orrs	r3, r2
 8002724:	6023      	str	r3, [r4, #0]
 8002726:	7829      	ldrb	r1, [r5, #0]
 8002728:	2206      	movs	r2, #6
 800272a:	4826      	ldr	r0, [pc, #152]	@ (80027c4 <_svfiprintf_r+0x1f0>)
 800272c:	1c6e      	adds	r6, r5, #1
 800272e:	7621      	strb	r1, [r4, #24]
 8002730:	f000 f9f2 	bl	8002b18 <memchr>
 8002734:	2800      	cmp	r0, #0
 8002736:	d038      	beq.n	80027aa <_svfiprintf_r+0x1d6>
 8002738:	4b23      	ldr	r3, [pc, #140]	@ (80027c8 <_svfiprintf_r+0x1f4>)
 800273a:	2b00      	cmp	r3, #0
 800273c:	d122      	bne.n	8002784 <_svfiprintf_r+0x1b0>
 800273e:	2207      	movs	r2, #7
 8002740:	9b07      	ldr	r3, [sp, #28]
 8002742:	3307      	adds	r3, #7
 8002744:	4393      	bics	r3, r2
 8002746:	3308      	adds	r3, #8
 8002748:	9307      	str	r3, [sp, #28]
 800274a:	6963      	ldr	r3, [r4, #20]
 800274c:	9a04      	ldr	r2, [sp, #16]
 800274e:	189b      	adds	r3, r3, r2
 8002750:	6163      	str	r3, [r4, #20]
 8002752:	e762      	b.n	800261a <_svfiprintf_r+0x46>
 8002754:	4343      	muls	r3, r0
 8002756:	0035      	movs	r5, r6
 8002758:	2101      	movs	r1, #1
 800275a:	189b      	adds	r3, r3, r2
 800275c:	e7a4      	b.n	80026a8 <_svfiprintf_r+0xd4>
 800275e:	2300      	movs	r3, #0
 8002760:	200a      	movs	r0, #10
 8002762:	0019      	movs	r1, r3
 8002764:	3501      	adds	r5, #1
 8002766:	6063      	str	r3, [r4, #4]
 8002768:	782a      	ldrb	r2, [r5, #0]
 800276a:	1c6e      	adds	r6, r5, #1
 800276c:	3a30      	subs	r2, #48	@ 0x30
 800276e:	2a09      	cmp	r2, #9
 8002770:	d903      	bls.n	800277a <_svfiprintf_r+0x1a6>
 8002772:	2b00      	cmp	r3, #0
 8002774:	d0c8      	beq.n	8002708 <_svfiprintf_r+0x134>
 8002776:	9109      	str	r1, [sp, #36]	@ 0x24
 8002778:	e7c6      	b.n	8002708 <_svfiprintf_r+0x134>
 800277a:	4341      	muls	r1, r0
 800277c:	0035      	movs	r5, r6
 800277e:	2301      	movs	r3, #1
 8002780:	1889      	adds	r1, r1, r2
 8002782:	e7f1      	b.n	8002768 <_svfiprintf_r+0x194>
 8002784:	aa07      	add	r2, sp, #28
 8002786:	9200      	str	r2, [sp, #0]
 8002788:	0021      	movs	r1, r4
 800278a:	003a      	movs	r2, r7
 800278c:	4b0f      	ldr	r3, [pc, #60]	@ (80027cc <_svfiprintf_r+0x1f8>)
 800278e:	9803      	ldr	r0, [sp, #12]
 8002790:	e000      	b.n	8002794 <_svfiprintf_r+0x1c0>
 8002792:	bf00      	nop
 8002794:	9004      	str	r0, [sp, #16]
 8002796:	9b04      	ldr	r3, [sp, #16]
 8002798:	3301      	adds	r3, #1
 800279a:	d1d6      	bne.n	800274a <_svfiprintf_r+0x176>
 800279c:	89bb      	ldrh	r3, [r7, #12]
 800279e:	980d      	ldr	r0, [sp, #52]	@ 0x34
 80027a0:	065b      	lsls	r3, r3, #25
 80027a2:	d500      	bpl.n	80027a6 <_svfiprintf_r+0x1d2>
 80027a4:	e72c      	b.n	8002600 <_svfiprintf_r+0x2c>
 80027a6:	b021      	add	sp, #132	@ 0x84
 80027a8:	bdf0      	pop	{r4, r5, r6, r7, pc}
 80027aa:	aa07      	add	r2, sp, #28
 80027ac:	9200      	str	r2, [sp, #0]
 80027ae:	0021      	movs	r1, r4
 80027b0:	003a      	movs	r2, r7
 80027b2:	4b06      	ldr	r3, [pc, #24]	@ (80027cc <_svfiprintf_r+0x1f8>)
 80027b4:	9803      	ldr	r0, [sp, #12]
 80027b6:	f000 f87b 	bl	80028b0 <_printf_i>
 80027ba:	e7eb      	b.n	8002794 <_svfiprintf_r+0x1c0>
 80027bc:	08002c64 	.word	0x08002c64
 80027c0:	08002c6a 	.word	0x08002c6a
 80027c4:	08002c6e 	.word	0x08002c6e
 80027c8:	00000000 	.word	0x00000000
 80027cc:	08002515 	.word	0x08002515

080027d0 <_printf_common>:
 80027d0:	b5f7      	push	{r0, r1, r2, r4, r5, r6, r7, lr}
 80027d2:	0016      	movs	r6, r2
 80027d4:	9301      	str	r3, [sp, #4]
 80027d6:	688a      	ldr	r2, [r1, #8]
 80027d8:	690b      	ldr	r3, [r1, #16]
 80027da:	000c      	movs	r4, r1
 80027dc:	9000      	str	r0, [sp, #0]
 80027de:	4293      	cmp	r3, r2
 80027e0:	da00      	bge.n	80027e4 <_printf_common+0x14>
 80027e2:	0013      	movs	r3, r2
 80027e4:	0022      	movs	r2, r4
 80027e6:	6033      	str	r3, [r6, #0]
 80027e8:	3243      	adds	r2, #67	@ 0x43
 80027ea:	7812      	ldrb	r2, [r2, #0]
 80027ec:	2a00      	cmp	r2, #0
 80027ee:	d001      	beq.n	80027f4 <_printf_common+0x24>
 80027f0:	3301      	adds	r3, #1
 80027f2:	6033      	str	r3, [r6, #0]
 80027f4:	6823      	ldr	r3, [r4, #0]
 80027f6:	069b      	lsls	r3, r3, #26
 80027f8:	d502      	bpl.n	8002800 <_printf_common+0x30>
 80027fa:	6833      	ldr	r3, [r6, #0]
 80027fc:	3302      	adds	r3, #2
 80027fe:	6033      	str	r3, [r6, #0]
 8002800:	6822      	ldr	r2, [r4, #0]
 8002802:	2306      	movs	r3, #6
 8002804:	0015      	movs	r5, r2
 8002806:	401d      	ands	r5, r3
 8002808:	421a      	tst	r2, r3
 800280a:	d027      	beq.n	800285c <_printf_common+0x8c>
 800280c:	0023      	movs	r3, r4
 800280e:	3343      	adds	r3, #67	@ 0x43
 8002810:	781b      	ldrb	r3, [r3, #0]
 8002812:	1e5a      	subs	r2, r3, #1
 8002814:	4193      	sbcs	r3, r2
 8002816:	6822      	ldr	r2, [r4, #0]
 8002818:	0692      	lsls	r2, r2, #26
 800281a:	d430      	bmi.n	800287e <_printf_common+0xae>
 800281c:	0022      	movs	r2, r4
 800281e:	9901      	ldr	r1, [sp, #4]
 8002820:	9800      	ldr	r0, [sp, #0]
 8002822:	9d08      	ldr	r5, [sp, #32]
 8002824:	3243      	adds	r2, #67	@ 0x43
 8002826:	47a8      	blx	r5
 8002828:	3001      	adds	r0, #1
 800282a:	d025      	beq.n	8002878 <_printf_common+0xa8>
 800282c:	2206      	movs	r2, #6
 800282e:	6823      	ldr	r3, [r4, #0]
 8002830:	2500      	movs	r5, #0
 8002832:	4013      	ands	r3, r2
 8002834:	2b04      	cmp	r3, #4
 8002836:	d105      	bne.n	8002844 <_printf_common+0x74>
 8002838:	6833      	ldr	r3, [r6, #0]
 800283a:	68e5      	ldr	r5, [r4, #12]
 800283c:	1aed      	subs	r5, r5, r3
 800283e:	43eb      	mvns	r3, r5
 8002840:	17db      	asrs	r3, r3, #31
 8002842:	401d      	ands	r5, r3
 8002844:	68a3      	ldr	r3, [r4, #8]
 8002846:	6922      	ldr	r2, [r4, #16]
 8002848:	4293      	cmp	r3, r2
 800284a:	dd01      	ble.n	8002850 <_printf_common+0x80>
 800284c:	1a9b      	subs	r3, r3, r2
 800284e:	18ed      	adds	r5, r5, r3
 8002850:	2600      	movs	r6, #0
 8002852:	42b5      	cmp	r5, r6
 8002854:	d120      	bne.n	8002898 <_printf_common+0xc8>
 8002856:	2000      	movs	r0, #0
 8002858:	e010      	b.n	800287c <_printf_common+0xac>
 800285a:	3501      	adds	r5, #1
 800285c:	68e3      	ldr	r3, [r4, #12]
 800285e:	6832      	ldr	r2, [r6, #0]
 8002860:	1a9b      	subs	r3, r3, r2
 8002862:	42ab      	cmp	r3, r5
 8002864:	ddd2      	ble.n	800280c <_printf_common+0x3c>
 8002866:	0022      	movs	r2, r4
 8002868:	2301      	movs	r3, #1
 800286a:	9901      	ldr	r1, [sp, #4]
 800286c:	9800      	ldr	r0, [sp, #0]
 800286e:	9f08      	ldr	r7, [sp, #32]
 8002870:	3219      	adds	r2, #25
 8002872:	47b8      	blx	r7
 8002874:	3001      	adds	r0, #1
 8002876:	d1f0      	bne.n	800285a <_printf_common+0x8a>
 8002878:	2001      	movs	r0, #1
 800287a:	4240      	negs	r0, r0
 800287c:	bdfe      	pop	{r1, r2, r3, r4, r5, r6, r7, pc}
 800287e:	2030      	movs	r0, #48	@ 0x30
 8002880:	18e1      	adds	r1, r4, r3
 8002882:	3143      	adds	r1, #67	@ 0x43
 8002884:	7008      	strb	r0, [r1, #0]
 8002886:	0021      	movs	r1, r4
 8002888:	1c5a      	adds	r2, r3, #1
 800288a:	3145      	adds	r1, #69	@ 0x45
 800288c:	7809      	ldrb	r1, [r1, #0]
 800288e:	18a2      	adds	r2, r4, r2
 8002890:	3243      	adds	r2, #67	@ 0x43
 8002892:	3302      	adds	r3, #2
 8002894:	7011      	strb	r1, [r2, #0]
 8002896:	e7c1      	b.n	800281c <_printf_common+0x4c>
 8002898:	0022      	movs	r2, r4
 800289a:	2301      	movs	r3, #1
 800289c:	9901      	ldr	r1, [sp, #4]
 800289e:	9800      	ldr	r0, [sp, #0]
 80028a0:	9f08      	ldr	r7, [sp, #32]
 80028a2:	321a      	adds	r2, #26
 80028a4:	47b8      	blx	r7
 80028a6:	3001      	adds	r0, #1
 80028a8:	d0e6      	beq.n	8002878 <_printf_common+0xa8>
 80028aa:	3601      	adds	r6, #1
 80028ac:	e7d1      	b.n	8002852 <_printf_common+0x82>
	...

080028b0 <_printf_i>:
 80028b0:	b5f0      	push	{r4, r5, r6, r7, lr}
 80028b2:	b08b      	sub	sp, #44	@ 0x2c
 80028b4:	9206      	str	r2, [sp, #24]
 80028b6:	000a      	movs	r2, r1
 80028b8:	3243      	adds	r2, #67	@ 0x43
 80028ba:	9307      	str	r3, [sp, #28]
 80028bc:	9005      	str	r0, [sp, #20]
 80028be:	9203      	str	r2, [sp, #12]
 80028c0:	7e0a      	ldrb	r2, [r1, #24]
 80028c2:	000c      	movs	r4, r1
 80028c4:	9b10      	ldr	r3, [sp, #64]	@ 0x40
 80028c6:	2a78      	cmp	r2, #120	@ 0x78
 80028c8:	d809      	bhi.n	80028de <_printf_i+0x2e>
 80028ca:	2a62      	cmp	r2, #98	@ 0x62
 80028cc:	d80b      	bhi.n	80028e6 <_printf_i+0x36>
 80028ce:	2a00      	cmp	r2, #0
 80028d0:	d100      	bne.n	80028d4 <_printf_i+0x24>
 80028d2:	e0bc      	b.n	8002a4e <_printf_i+0x19e>
 80028d4:	497b      	ldr	r1, [pc, #492]	@ (8002ac4 <_printf_i+0x214>)
 80028d6:	9104      	str	r1, [sp, #16]
 80028d8:	2a58      	cmp	r2, #88	@ 0x58
 80028da:	d100      	bne.n	80028de <_printf_i+0x2e>
 80028dc:	e090      	b.n	8002a00 <_printf_i+0x150>
 80028de:	0025      	movs	r5, r4
 80028e0:	3542      	adds	r5, #66	@ 0x42
 80028e2:	702a      	strb	r2, [r5, #0]
 80028e4:	e022      	b.n	800292c <_printf_i+0x7c>
 80028e6:	0010      	movs	r0, r2
 80028e8:	3863      	subs	r0, #99	@ 0x63
 80028ea:	2815      	cmp	r0, #21
 80028ec:	d8f7      	bhi.n	80028de <_printf_i+0x2e>
 80028ee:	f7fd fc09 	bl	8000104 <__gnu_thumb1_case_shi>
 80028f2:	0016      	.short	0x0016
 80028f4:	fff6001f 	.word	0xfff6001f
 80028f8:	fff6fff6 	.word	0xfff6fff6
 80028fc:	001ffff6 	.word	0x001ffff6
 8002900:	fff6fff6 	.word	0xfff6fff6
 8002904:	fff6fff6 	.word	0xfff6fff6
 8002908:	003600a1 	.word	0x003600a1
 800290c:	fff60080 	.word	0xfff60080
 8002910:	00b2fff6 	.word	0x00b2fff6
 8002914:	0036fff6 	.word	0x0036fff6
 8002918:	fff6fff6 	.word	0xfff6fff6
 800291c:	0084      	.short	0x0084
 800291e:	0025      	movs	r5, r4
 8002920:	681a      	ldr	r2, [r3, #0]
 8002922:	3542      	adds	r5, #66	@ 0x42
 8002924:	1d11      	adds	r1, r2, #4
 8002926:	6019      	str	r1, [r3, #0]
 8002928:	6813      	ldr	r3, [r2, #0]
 800292a:	702b      	strb	r3, [r5, #0]
 800292c:	2301      	movs	r3, #1
 800292e:	e0a0      	b.n	8002a72 <_printf_i+0x1c2>
 8002930:	6818      	ldr	r0, [r3, #0]
 8002932:	6809      	ldr	r1, [r1, #0]
 8002934:	1d02      	adds	r2, r0, #4
 8002936:	060d      	lsls	r5, r1, #24
 8002938:	d50b      	bpl.n	8002952 <_printf_i+0xa2>
 800293a:	6806      	ldr	r6, [r0, #0]
 800293c:	601a      	str	r2, [r3, #0]
 800293e:	2e00      	cmp	r6, #0
 8002940:	da03      	bge.n	800294a <_printf_i+0x9a>
 8002942:	232d      	movs	r3, #45	@ 0x2d
 8002944:	9a03      	ldr	r2, [sp, #12]
 8002946:	4276      	negs	r6, r6
 8002948:	7013      	strb	r3, [r2, #0]
 800294a:	4b5e      	ldr	r3, [pc, #376]	@ (8002ac4 <_printf_i+0x214>)
 800294c:	270a      	movs	r7, #10
 800294e:	9304      	str	r3, [sp, #16]
 8002950:	e018      	b.n	8002984 <_printf_i+0xd4>
 8002952:	6806      	ldr	r6, [r0, #0]
 8002954:	601a      	str	r2, [r3, #0]
 8002956:	0649      	lsls	r1, r1, #25
 8002958:	d5f1      	bpl.n	800293e <_printf_i+0x8e>
 800295a:	b236      	sxth	r6, r6
 800295c:	e7ef      	b.n	800293e <_printf_i+0x8e>
 800295e:	6808      	ldr	r0, [r1, #0]
 8002960:	6819      	ldr	r1, [r3, #0]
 8002962:	c940      	ldmia	r1!, {r6}
 8002964:	0605      	lsls	r5, r0, #24
 8002966:	d402      	bmi.n	800296e <_printf_i+0xbe>
 8002968:	0640      	lsls	r0, r0, #25
 800296a:	d500      	bpl.n	800296e <_printf_i+0xbe>
 800296c:	b2b6      	uxth	r6, r6
 800296e:	6019      	str	r1, [r3, #0]
 8002970:	4b54      	ldr	r3, [pc, #336]	@ (8002ac4 <_printf_i+0x214>)
 8002972:	270a      	movs	r7, #10
 8002974:	9304      	str	r3, [sp, #16]
 8002976:	2a6f      	cmp	r2, #111	@ 0x6f
 8002978:	d100      	bne.n	800297c <_printf_i+0xcc>
 800297a:	3f02      	subs	r7, #2
 800297c:	0023      	movs	r3, r4
 800297e:	2200      	movs	r2, #0
 8002980:	3343      	adds	r3, #67	@ 0x43
 8002982:	701a      	strb	r2, [r3, #0]
 8002984:	6863      	ldr	r3, [r4, #4]
 8002986:	60a3      	str	r3, [r4, #8]
 8002988:	2b00      	cmp	r3, #0
 800298a:	db03      	blt.n	8002994 <_printf_i+0xe4>
 800298c:	2104      	movs	r1, #4
 800298e:	6822      	ldr	r2, [r4, #0]
 8002990:	438a      	bics	r2, r1
 8002992:	6022      	str	r2, [r4, #0]
 8002994:	2e00      	cmp	r6, #0
 8002996:	d102      	bne.n	800299e <_printf_i+0xee>
 8002998:	9d03      	ldr	r5, [sp, #12]
 800299a:	2b00      	cmp	r3, #0
 800299c:	d00c      	beq.n	80029b8 <_printf_i+0x108>
 800299e:	9d03      	ldr	r5, [sp, #12]
 80029a0:	0030      	movs	r0, r6
 80029a2:	0039      	movs	r1, r7
 80029a4:	f7fd fc3e 	bl	8000224 <__aeabi_uidivmod>
 80029a8:	9b04      	ldr	r3, [sp, #16]
 80029aa:	3d01      	subs	r5, #1
 80029ac:	5c5b      	ldrb	r3, [r3, r1]
 80029ae:	702b      	strb	r3, [r5, #0]
 80029b0:	0033      	movs	r3, r6
 80029b2:	0006      	movs	r6, r0
 80029b4:	429f      	cmp	r7, r3
 80029b6:	d9f3      	bls.n	80029a0 <_printf_i+0xf0>
 80029b8:	2f08      	cmp	r7, #8
 80029ba:	d109      	bne.n	80029d0 <_printf_i+0x120>
 80029bc:	6823      	ldr	r3, [r4, #0]
 80029be:	07db      	lsls	r3, r3, #31
 80029c0:	d506      	bpl.n	80029d0 <_printf_i+0x120>
 80029c2:	6862      	ldr	r2, [r4, #4]
 80029c4:	6923      	ldr	r3, [r4, #16]
 80029c6:	429a      	cmp	r2, r3
 80029c8:	dc02      	bgt.n	80029d0 <_printf_i+0x120>
 80029ca:	2330      	movs	r3, #48	@ 0x30
 80029cc:	3d01      	subs	r5, #1
 80029ce:	702b      	strb	r3, [r5, #0]
 80029d0:	9b03      	ldr	r3, [sp, #12]
 80029d2:	1b5b      	subs	r3, r3, r5
 80029d4:	6123      	str	r3, [r4, #16]
 80029d6:	9b07      	ldr	r3, [sp, #28]
 80029d8:	0021      	movs	r1, r4
 80029da:	9300      	str	r3, [sp, #0]
 80029dc:	9805      	ldr	r0, [sp, #20]
 80029de:	9b06      	ldr	r3, [sp, #24]
 80029e0:	aa09      	add	r2, sp, #36	@ 0x24
 80029e2:	f7ff fef5 	bl	80027d0 <_printf_common>
 80029e6:	3001      	adds	r0, #1
 80029e8:	d148      	bne.n	8002a7c <_printf_i+0x1cc>
 80029ea:	2001      	movs	r0, #1
 80029ec:	4240      	negs	r0, r0
 80029ee:	b00b      	add	sp, #44	@ 0x2c
 80029f0:	bdf0      	pop	{r4, r5, r6, r7, pc}
 80029f2:	2220      	movs	r2, #32
 80029f4:	6809      	ldr	r1, [r1, #0]
 80029f6:	430a      	orrs	r2, r1
 80029f8:	6022      	str	r2, [r4, #0]
 80029fa:	2278      	movs	r2, #120	@ 0x78
 80029fc:	4932      	ldr	r1, [pc, #200]	@ (8002ac8 <_printf_i+0x218>)
 80029fe:	9104      	str	r1, [sp, #16]
 8002a00:	0021      	movs	r1, r4
 8002a02:	3145      	adds	r1, #69	@ 0x45
 8002a04:	700a      	strb	r2, [r1, #0]
 8002a06:	6819      	ldr	r1, [r3, #0]
 8002a08:	6822      	ldr	r2, [r4, #0]
 8002a0a:	c940      	ldmia	r1!, {r6}
 8002a0c:	0610      	lsls	r0, r2, #24
 8002a0e:	d402      	bmi.n	8002a16 <_printf_i+0x166>
 8002a10:	0650      	lsls	r0, r2, #25
 8002a12:	d500      	bpl.n	8002a16 <_printf_i+0x166>
 8002a14:	b2b6      	uxth	r6, r6
 8002a16:	6019      	str	r1, [r3, #0]
 8002a18:	07d3      	lsls	r3, r2, #31
 8002a1a:	d502      	bpl.n	8002a22 <_printf_i+0x172>
 8002a1c:	2320      	movs	r3, #32
 8002a1e:	4313      	orrs	r3, r2
 8002a20:	6023      	str	r3, [r4, #0]
 8002a22:	2e00      	cmp	r6, #0
 8002a24:	d001      	beq.n	8002a2a <_printf_i+0x17a>
 8002a26:	2710      	movs	r7, #16
 8002a28:	e7a8      	b.n	800297c <_printf_i+0xcc>
 8002a2a:	2220      	movs	r2, #32
 8002a2c:	6823      	ldr	r3, [r4, #0]
 8002a2e:	4393      	bics	r3, r2
 8002a30:	6023      	str	r3, [r4, #0]
 8002a32:	e7f8      	b.n	8002a26 <_printf_i+0x176>
 8002a34:	681a      	ldr	r2, [r3, #0]
 8002a36:	680d      	ldr	r5, [r1, #0]
 8002a38:	1d10      	adds	r0, r2, #4
 8002a3a:	6949      	ldr	r1, [r1, #20]
 8002a3c:	6018      	str	r0, [r3, #0]
 8002a3e:	6813      	ldr	r3, [r2, #0]
 8002a40:	062e      	lsls	r6, r5, #24
 8002a42:	d501      	bpl.n	8002a48 <_printf_i+0x198>
 8002a44:	6019      	str	r1, [r3, #0]
 8002a46:	e002      	b.n	8002a4e <_printf_i+0x19e>
 8002a48:	066d      	lsls	r5, r5, #25
 8002a4a:	d5fb      	bpl.n	8002a44 <_printf_i+0x194>
 8002a4c:	8019      	strh	r1, [r3, #0]
 8002a4e:	2300      	movs	r3, #0
 8002a50:	9d03      	ldr	r5, [sp, #12]
 8002a52:	6123      	str	r3, [r4, #16]
 8002a54:	e7bf      	b.n	80029d6 <_printf_i+0x126>
 8002a56:	681a      	ldr	r2, [r3, #0]
 8002a58:	1d11      	adds	r1, r2, #4
 8002a5a:	6019      	str	r1, [r3, #0]
 8002a5c:	6815      	ldr	r5, [r2, #0]
 8002a5e:	2100      	movs	r1, #0
 8002a60:	0028      	movs	r0, r5
 8002a62:	6862      	ldr	r2, [r4, #4]
 8002a64:	f000 f858 	bl	8002b18 <memchr>
 8002a68:	2800      	cmp	r0, #0
 8002a6a:	d001      	beq.n	8002a70 <_printf_i+0x1c0>
 8002a6c:	1b40      	subs	r0, r0, r5
 8002a6e:	6060      	str	r0, [r4, #4]
 8002a70:	6863      	ldr	r3, [r4, #4]
 8002a72:	6123      	str	r3, [r4, #16]
 8002a74:	2300      	movs	r3, #0
 8002a76:	9a03      	ldr	r2, [sp, #12]
 8002a78:	7013      	strb	r3, [r2, #0]
 8002a7a:	e7ac      	b.n	80029d6 <_printf_i+0x126>
 8002a7c:	002a      	movs	r2, r5
 8002a7e:	6923      	ldr	r3, [r4, #16]
 8002a80:	9906      	ldr	r1, [sp, #24]
 8002a82:	9805      	ldr	r0, [sp, #20]
 8002a84:	9d07      	ldr	r5, [sp, #28]
 8002a86:	47a8      	blx	r5
 8002a88:	3001      	adds	r0, #1
 8002a8a:	d0ae      	beq.n	80029ea <_printf_i+0x13a>
 8002a8c:	6823      	ldr	r3, [r4, #0]
 8002a8e:	079b      	lsls	r3, r3, #30
 8002a90:	d415      	bmi.n	8002abe <_printf_i+0x20e>
 8002a92:	9b09      	ldr	r3, [sp, #36]	@ 0x24
 8002a94:	68e0      	ldr	r0, [r4, #12]
 8002a96:	4298      	cmp	r0, r3
 8002a98:	daa9      	bge.n	80029ee <_printf_i+0x13e>
 8002a9a:	0018      	movs	r0, r3
 8002a9c:	e7a7      	b.n	80029ee <_printf_i+0x13e>
 8002a9e:	0022      	movs	r2, r4
 8002aa0:	2301      	movs	r3, #1
 8002aa2:	9906      	ldr	r1, [sp, #24]
 8002aa4:	9805      	ldr	r0, [sp, #20]
 8002aa6:	9e07      	ldr	r6, [sp, #28]
 8002aa8:	3219      	adds	r2, #25
 8002aaa:	47b0      	blx	r6
 8002aac:	3001      	adds	r0, #1
 8002aae:	d09c      	beq.n	80029ea <_printf_i+0x13a>
 8002ab0:	3501      	adds	r5, #1
 8002ab2:	68e3      	ldr	r3, [r4, #12]
 8002ab4:	9a09      	ldr	r2, [sp, #36]	@ 0x24
 8002ab6:	1a9b      	subs	r3, r3, r2
 8002ab8:	42ab      	cmp	r3, r5
 8002aba:	dcf0      	bgt.n	8002a9e <_printf_i+0x1ee>
 8002abc:	e7e9      	b.n	8002a92 <_printf_i+0x1e2>
 8002abe:	2500      	movs	r5, #0
 8002ac0:	e7f7      	b.n	8002ab2 <_printf_i+0x202>
 8002ac2:	46c0      	nop			@ (mov r8, r8)
 8002ac4:	08002c75 	.word	0x08002c75
 8002ac8:	08002c86 	.word	0x08002c86

08002acc <memmove>:
 8002acc:	b510      	push	{r4, lr}
 8002ace:	4288      	cmp	r0, r1
 8002ad0:	d806      	bhi.n	8002ae0 <memmove+0x14>
 8002ad2:	2300      	movs	r3, #0
 8002ad4:	429a      	cmp	r2, r3
 8002ad6:	d008      	beq.n	8002aea <memmove+0x1e>
 8002ad8:	5ccc      	ldrb	r4, [r1, r3]
 8002ada:	54c4      	strb	r4, [r0, r3]
 8002adc:	3301      	adds	r3, #1
 8002ade:	e7f9      	b.n	8002ad4 <memmove+0x8>
 8002ae0:	188b      	adds	r3, r1, r2
 8002ae2:	4298      	cmp	r0, r3
 8002ae4:	d2f5      	bcs.n	8002ad2 <memmove+0x6>
 8002ae6:	3a01      	subs	r2, #1
 8002ae8:	d200      	bcs.n	8002aec <memmove+0x20>
 8002aea:	bd10      	pop	{r4, pc}
 8002aec:	5c8b      	ldrb	r3, [r1, r2]
 8002aee:	5483      	strb	r3, [r0, r2]
 8002af0:	e7f9      	b.n	8002ae6 <memmove+0x1a>
	...

08002af4 <_sbrk_r>:
 8002af4:	2300      	movs	r3, #0
 8002af6:	b570      	push	{r4, r5, r6, lr}
 8002af8:	4d06      	ldr	r5, [pc, #24]	@ (8002b14 <_sbrk_r+0x20>)
 8002afa:	0004      	movs	r4, r0
 8002afc:	0008      	movs	r0, r1
 8002afe:	602b      	str	r3, [r5, #0]
 8002b00:	f7ff f924 	bl	8001d4c <_sbrk>
 8002b04:	1c43      	adds	r3, r0, #1
 8002b06:	d103      	bne.n	8002b10 <_sbrk_r+0x1c>
 8002b08:	682b      	ldr	r3, [r5, #0]
 8002b0a:	2b00      	cmp	r3, #0
 8002b0c:	d000      	beq.n	8002b10 <_sbrk_r+0x1c>
 8002b0e:	6023      	str	r3, [r4, #0]
 8002b10:	bd70      	pop	{r4, r5, r6, pc}
 8002b12:	46c0      	nop			@ (mov r8, r8)
 8002b14:	20000230 	.word	0x20000230

08002b18 <memchr>:
 8002b18:	b2c9      	uxtb	r1, r1
 8002b1a:	1882      	adds	r2, r0, r2
 8002b1c:	4290      	cmp	r0, r2
 8002b1e:	d101      	bne.n	8002b24 <memchr+0xc>
 8002b20:	2000      	movs	r0, #0
 8002b22:	4770      	bx	lr
 8002b24:	7803      	ldrb	r3, [r0, #0]
 8002b26:	428b      	cmp	r3, r1
 8002b28:	d0fb      	beq.n	8002b22 <memchr+0xa>
 8002b2a:	3001      	adds	r0, #1
 8002b2c:	e7f6      	b.n	8002b1c <memchr+0x4>

08002b2e <_realloc_r>:
 8002b2e:	b5f7      	push	{r0, r1, r2, r4, r5, r6, r7, lr}
 8002b30:	0006      	movs	r6, r0
 8002b32:	000c      	movs	r4, r1
 8002b34:	0015      	movs	r5, r2
 8002b36:	2900      	cmp	r1, #0
 8002b38:	d105      	bne.n	8002b46 <_realloc_r+0x18>
 8002b3a:	0011      	movs	r1, r2
 8002b3c:	f7ff fc5a 	bl	80023f4 <_malloc_r>
 8002b40:	0004      	movs	r4, r0
 8002b42:	0020      	movs	r0, r4
 8002b44:	bdfe      	pop	{r1, r2, r3, r4, r5, r6, r7, pc}
 8002b46:	2a00      	cmp	r2, #0
 8002b48:	d103      	bne.n	8002b52 <_realloc_r+0x24>
 8002b4a:	f7ff fbe7 	bl	800231c <_free_r>
 8002b4e:	2400      	movs	r4, #0
 8002b50:	e7f7      	b.n	8002b42 <_realloc_r+0x14>
 8002b52:	f000 f81b 	bl	8002b8c <_malloc_usable_size_r>
 8002b56:	0007      	movs	r7, r0
 8002b58:	4285      	cmp	r5, r0
 8002b5a:	d802      	bhi.n	8002b62 <_realloc_r+0x34>
 8002b5c:	0843      	lsrs	r3, r0, #1
 8002b5e:	42ab      	cmp	r3, r5
 8002b60:	d3ef      	bcc.n	8002b42 <_realloc_r+0x14>
 8002b62:	0029      	movs	r1, r5
 8002b64:	0030      	movs	r0, r6
 8002b66:	f7ff fc45 	bl	80023f4 <_malloc_r>
 8002b6a:	9001      	str	r0, [sp, #4]
 8002b6c:	2800      	cmp	r0, #0
 8002b6e:	d0ee      	beq.n	8002b4e <_realloc_r+0x20>
 8002b70:	002a      	movs	r2, r5
 8002b72:	42bd      	cmp	r5, r7
 8002b74:	d900      	bls.n	8002b78 <_realloc_r+0x4a>
 8002b76:	003a      	movs	r2, r7
 8002b78:	0021      	movs	r1, r4
 8002b7a:	9801      	ldr	r0, [sp, #4]
 8002b7c:	f7ff fbc4 	bl	8002308 <memcpy>
 8002b80:	0021      	movs	r1, r4
 8002b82:	0030      	movs	r0, r6
 8002b84:	f7ff fbca 	bl	800231c <_free_r>
 8002b88:	9c01      	ldr	r4, [sp, #4]
 8002b8a:	e7da      	b.n	8002b42 <_realloc_r+0x14>

08002b8c <_malloc_usable_size_r>:
 8002b8c:	1f0b      	subs	r3, r1, #4
 8002b8e:	681b      	ldr	r3, [r3, #0]
 8002b90:	1f18      	subs	r0, r3, #4
 8002b92:	2b00      	cmp	r3, #0
 8002b94:	da01      	bge.n	8002b9a <_malloc_usable_size_r+0xe>
 8002b96:	580b      	ldr	r3, [r1, r0]
 8002b98:	18c0      	adds	r0, r0, r3
 8002b9a:	4770      	bx	lr

08002b9c <_init>:
 8002b9c:	b5f8      	push	{r3, r4, r5, r6, r7, lr}
 8002b9e:	46c0      	nop			@ (mov r8, r8)
 8002ba0:	bcf8      	pop	{r3, r4, r5, r6, r7}
 8002ba2:	bc08      	pop	{r3}
 8002ba4:	469e      	mov	lr, r3
 8002ba6:	4770      	bx	lr

08002ba8 <_fini>:
 8002ba8:	b5f8      	push	{r3, r4, r5, r6, r7, lr}
 8002baa:	46c0      	nop			@ (mov r8, r8)
 8002bac:	bcf8      	pop	{r3, r4, r5, r6, r7}
 8002bae:	bc08      	pop	{r3}
 8002bb0:	469e      	mov	lr, r3
 8002bb2:	4770      	bx	lr
